   1              		.syntax unified
   2              		.cpu cortex-m4
   3              		.eabi_attribute 27, 1
   4              		.fpu fpv4-sp-d16
   5              		.eabi_attribute 20, 1
   6              		.eabi_attribute 21, 1
   7              		.eabi_attribute 23, 3
   8              		.eabi_attribute 24, 1
   9              		.eabi_attribute 25, 1
  10              		.eabi_attribute 26, 1
  11              		.eabi_attribute 30, 2
  12              		.eabi_attribute 34, 1
  13              		.eabi_attribute 18, 4
  14              		.thumb
  15              		.syntax unified
  16              		.file	"HANcoder_E407_CAN_COMM_TEST.c"
  17              		.text
  18              	.Ltext0:
  19              		.cfi_sections	.debug_frame
  20              		.section	.text.ByteSwap_x,"ax",%progbits
  21              		.align	2
  22              		.global	ByteSwap_x
  23              		.thumb
  24              		.thumb_func
  26              	ByteSwap_x:
  27              	.LFB112:
  28              		.file 1 "HANcoder_E407_CAN_COMM_TEST.c"
   1:HANcoder_E407_CAN_COMM_TEST.c **** /*
   2:HANcoder_E407_CAN_COMM_TEST.c ****  * Academic License - for use in teaching, academic research, and meeting
   3:HANcoder_E407_CAN_COMM_TEST.c ****  * course requirements at degree granting institutions only.  Not for
   4:HANcoder_E407_CAN_COMM_TEST.c ****  * government, commercial, or other organizational use.
   5:HANcoder_E407_CAN_COMM_TEST.c ****  *
   6:HANcoder_E407_CAN_COMM_TEST.c ****  * File: HANcoder_E407_CAN_COMM_TEST.c
   7:HANcoder_E407_CAN_COMM_TEST.c ****  *
   8:HANcoder_E407_CAN_COMM_TEST.c ****  * Code generated for Simulink model 'HANcoder_E407_CAN_COMM_TEST'.
   9:HANcoder_E407_CAN_COMM_TEST.c ****  *
  10:HANcoder_E407_CAN_COMM_TEST.c ****  * Model version                  : 1.124
  11:HANcoder_E407_CAN_COMM_TEST.c ****  * Simulink Coder version         : 9.0 (R2018b) 24-May-2018
  12:HANcoder_E407_CAN_COMM_TEST.c ****  * C/C++ source code generated on : Tue Feb 15 08:35:59 2022
  13:HANcoder_E407_CAN_COMM_TEST.c ****  *
  14:HANcoder_E407_CAN_COMM_TEST.c ****  * Target selection: ert.tlc
  15:HANcoder_E407_CAN_COMM_TEST.c ****  * Embedded hardware selection: Generic->32-bit Embedded Processor
  16:HANcoder_E407_CAN_COMM_TEST.c ****  * Code generation objectives: Unspecified
  17:HANcoder_E407_CAN_COMM_TEST.c ****  * Validation result: Not run
  18:HANcoder_E407_CAN_COMM_TEST.c ****  */
  19:HANcoder_E407_CAN_COMM_TEST.c **** 
  20:HANcoder_E407_CAN_COMM_TEST.c **** #include "HANcoder_E407_CAN_COMM_TEST.h"
  21:HANcoder_E407_CAN_COMM_TEST.c **** #include "HANcoder_E407_CAN_COMM_TEST_private.h"
  22:HANcoder_E407_CAN_COMM_TEST.c **** 
  23:HANcoder_E407_CAN_COMM_TEST.c **** /* map ByteSwap function */
  24:HANcoder_E407_CAN_COMM_TEST.c **** #define ByteSwap(x)                    (ByteSwap_x((uint8_t *) &x, sizeof(x)))
  25:HANcoder_E407_CAN_COMM_TEST.c **** 
  26:HANcoder_E407_CAN_COMM_TEST.c **** /* Exported block signals */
  27:HANcoder_E407_CAN_COMM_TEST.c **** real_T Rx_Buffer_1_CAN1;               /* '<S25>/Switch' */
  28:HANcoder_E407_CAN_COMM_TEST.c **** real_T Rx_Buffer_8_CAN1;               /* '<S32>/Switch' */
  29:HANcoder_E407_CAN_COMM_TEST.c **** real_T Rx_Buffer_2_CAN1;               /* '<S33>/Switch' */
  30:HANcoder_E407_CAN_COMM_TEST.c **** real_T Rx_Buffer_3_CAN1;               /* '<S34>/Switch' */
  31:HANcoder_E407_CAN_COMM_TEST.c **** real_T Rx_Buffer_4_CAN1;               /* '<S35>/Switch' */
  32:HANcoder_E407_CAN_COMM_TEST.c **** real_T Rx_Buffer_5_CAN1;               /* '<S36>/Switch' */
  33:HANcoder_E407_CAN_COMM_TEST.c **** real_T Rx_Buffer_6_CAN1;               /* '<S37>/Switch' */
  34:HANcoder_E407_CAN_COMM_TEST.c **** real_T Rx_Buffer_7_CAN1;               /* '<S38>/Switch' */
  35:HANcoder_E407_CAN_COMM_TEST.c **** real_T Rx_Buffer_5_CAN2;               /* '<S26>/Switch' */
  36:HANcoder_E407_CAN_COMM_TEST.c **** real_T Rx_Buffer_4_CAN2;               /* '<S27>/Switch' */
  37:HANcoder_E407_CAN_COMM_TEST.c **** real_T Rx_Buffer_3_CAN2;               /* '<S28>/Switch' */
  38:HANcoder_E407_CAN_COMM_TEST.c **** real_T Rx_Buffer_2_CAN2;               /* '<S29>/Switch' */
  39:HANcoder_E407_CAN_COMM_TEST.c **** real_T Rx_Buffer_7_CAN2;               /* '<S30>/Switch' */
  40:HANcoder_E407_CAN_COMM_TEST.c **** real_T Rx_Buffer_1_CAN2;               /* '<S31>/Switch' */
  41:HANcoder_E407_CAN_COMM_TEST.c **** real_T Rx_Buffer_8_CAN2;               /* '<S39>/Switch' */
  42:HANcoder_E407_CAN_COMM_TEST.c **** real_T Rx_Buffer_6_CAN2;               /* '<S40>/Switch' */
  43:HANcoder_E407_CAN_COMM_TEST.c **** uint32_T SI_FreeHeap;                  /* '<S108>/Level-2 M-file S-Function' */
  44:HANcoder_E407_CAN_COMM_TEST.c **** uint32_T SI_FreeStack;                 /* '<S109>/Level-2 M-file S-Function' */
  45:HANcoder_E407_CAN_COMM_TEST.c **** uint32_T constant_ID_TXCAN1;           /* '<S12>/Data Type Conversion3' */
  46:HANcoder_E407_CAN_COMM_TEST.c **** uint32_T constant_ID_TXCAN2;           /* '<S12>/Data Type Conversion4' */
  47:HANcoder_E407_CAN_COMM_TEST.c **** uint32_T Tx_ID_CAN1_s;                 /* '<S12>/Data Type Conversion1' */
  48:HANcoder_E407_CAN_COMM_TEST.c **** uint32_T Tx_ID_CAN2_s;                 /* '<S12>/Data Type Conversion2' */
  49:HANcoder_E407_CAN_COMM_TEST.c **** uint32_T constant_ID_RXCAN1;           /* '<S10>/Cast' */
  50:HANcoder_E407_CAN_COMM_TEST.c **** uint32_T constant_ID_RXCAN2;           /* '<S10>/Cast1' */
  51:HANcoder_E407_CAN_COMM_TEST.c **** uint32_T Rx_ID_CAN2_s;                 /* '<S10>/Constant1' */
  52:HANcoder_E407_CAN_COMM_TEST.c **** uint32_T Rx_ID_CAN1_s;                 /* '<S10>/Constant2' */
  53:HANcoder_E407_CAN_COMM_TEST.c **** uint8_T SI_CPUload;                    /* '<S107>/Level-2 M-file S-Function' */
  54:HANcoder_E407_CAN_COMM_TEST.c **** uint8_T Tx_coded5_CAN1;                /* '<S112>/Plus' */
  55:HANcoder_E407_CAN_COMM_TEST.c **** uint8_T Tx_coded6_CAN1;                /* '<S120>/Plus' */
  56:HANcoder_E407_CAN_COMM_TEST.c **** uint8_T Tx_coded4_CAN1;                /* '<S121>/Plus' */
  57:HANcoder_E407_CAN_COMM_TEST.c **** uint8_T Tx_coded7_CAN1;                /* '<S122>/Plus' */
  58:HANcoder_E407_CAN_COMM_TEST.c **** uint8_T Tx_coded8_CAN1;                /* '<S123>/Plus' */
  59:HANcoder_E407_CAN_COMM_TEST.c **** uint8_T Tx_coded3_CAN1;                /* '<S124>/Plus' */
  60:HANcoder_E407_CAN_COMM_TEST.c **** uint8_T Tx_coded2_CAN1;                /* '<S125>/Plus' */
  61:HANcoder_E407_CAN_COMM_TEST.c **** uint8_T Tx_coded1_CAN1;                /* '<S126>/Plus' */
  62:HANcoder_E407_CAN_COMM_TEST.c **** uint8_T Tx_coded2_CAN2;                /* '<S113>/Plus' */
  63:HANcoder_E407_CAN_COMM_TEST.c **** uint8_T Tx_coded3_CAN2;                /* '<S114>/Plus' */
  64:HANcoder_E407_CAN_COMM_TEST.c **** uint8_T Tx_coded4_CAN2;                /* '<S115>/Plus' */
  65:HANcoder_E407_CAN_COMM_TEST.c **** uint8_T Tx_coded5_CAN2;                /* '<S116>/Plus' */
  66:HANcoder_E407_CAN_COMM_TEST.c **** uint8_T Tx_coded6_CAN2;                /* '<S117>/Plus' */
  67:HANcoder_E407_CAN_COMM_TEST.c **** uint8_T Tx_coded7_CAN2;                /* '<S118>/Plus' */
  68:HANcoder_E407_CAN_COMM_TEST.c **** uint8_T Tx_coded8_CAN2;                /* '<S119>/Plus' */
  69:HANcoder_E407_CAN_COMM_TEST.c **** uint8_T Tx_coded1_CAN2;                /* '<S127>/Plus' */
  70:HANcoder_E407_CAN_COMM_TEST.c **** uint8_T Rx_coded1_CAN2;                /* '<S42>/In1' */
  71:HANcoder_E407_CAN_COMM_TEST.c **** uint8_T Rx_coded2_CAN2;                /* '<S42>/In2' */
  72:HANcoder_E407_CAN_COMM_TEST.c **** uint8_T Rx_coded3_CAN2;                /* '<S42>/In3' */
  73:HANcoder_E407_CAN_COMM_TEST.c **** uint8_T Rx_coded4_CAN2;                /* '<S42>/In4' */
  74:HANcoder_E407_CAN_COMM_TEST.c **** uint8_T Rx_coded5_CAN2;                /* '<S42>/In5' */
  75:HANcoder_E407_CAN_COMM_TEST.c **** uint8_T Rx_coded6_CAN2;                /* '<S42>/In6' */
  76:HANcoder_E407_CAN_COMM_TEST.c **** uint8_T Rx_coded7_CAN2;                /* '<S42>/In7' */
  77:HANcoder_E407_CAN_COMM_TEST.c **** uint8_T Rx_coded8_CAN2;                /* '<S42>/In8' */
  78:HANcoder_E407_CAN_COMM_TEST.c **** uint8_T Rx_coded1_CAN1;                /* '<S41>/In1' */
  79:HANcoder_E407_CAN_COMM_TEST.c **** uint8_T Rx_coded2_CAN1;                /* '<S41>/In2' */
  80:HANcoder_E407_CAN_COMM_TEST.c **** uint8_T Rx_coded3_CAN1;                /* '<S41>/In3' */
  81:HANcoder_E407_CAN_COMM_TEST.c **** uint8_T Rx_coded4_CAN1;                /* '<S41>/In4' */
  82:HANcoder_E407_CAN_COMM_TEST.c **** uint8_T Rx_coded5_CAN1;                /* '<S41>/In5' */
  83:HANcoder_E407_CAN_COMM_TEST.c **** uint8_T Rx_coded6_CAN1;                /* '<S41>/In6' */
  84:HANcoder_E407_CAN_COMM_TEST.c **** uint8_T Rx_coded7_CAN1;                /* '<S41>/In7' */
  85:HANcoder_E407_CAN_COMM_TEST.c **** uint8_T Rx_coded8_CAN1;                /* '<S41>/In8' */
  86:HANcoder_E407_CAN_COMM_TEST.c **** int8_T new_CAN1;                       /* '<S23>/S-Function' */
  87:HANcoder_E407_CAN_COMM_TEST.c **** int8_T new_CAN2;                       /* '<S24>/S-Function' */
  88:HANcoder_E407_CAN_COMM_TEST.c **** boolean_T WKUP_button;                 /* '<S21>/Level-2 M-file S-Function' */
  89:HANcoder_E407_CAN_COMM_TEST.c **** boolean_T receiver_id;                 /* '<S7>/Level-2 M-file S-Function' */
  90:HANcoder_E407_CAN_COMM_TEST.c **** boolean_T sender_id;                   /* '<S6>/Level-2 M-file S-Function' */
  91:HANcoder_E407_CAN_COMM_TEST.c **** boolean_T LedValue;                    /* '<S2>/Data Type Conversion' */
  92:HANcoder_E407_CAN_COMM_TEST.c **** boolean_T OF5_CAN1;                    /* '<S112>/LessThanOrEqual' */
  93:HANcoder_E407_CAN_COMM_TEST.c **** boolean_T OF6_CAN1;                    /* '<S120>/LessThanOrEqual' */
  94:HANcoder_E407_CAN_COMM_TEST.c **** boolean_T OF4_CAN1;                    /* '<S121>/LessThanOrEqual' */
  95:HANcoder_E407_CAN_COMM_TEST.c **** boolean_T OF7_CAN1;                    /* '<S122>/LessThanOrEqual' */
  96:HANcoder_E407_CAN_COMM_TEST.c **** boolean_T OF8_CAN1;                    /* '<S123>/LessThanOrEqual' */
  97:HANcoder_E407_CAN_COMM_TEST.c **** boolean_T OF3_CAN1;                    /* '<S124>/LessThanOrEqual' */
  98:HANcoder_E407_CAN_COMM_TEST.c **** boolean_T OF2_CAN1;                    /* '<S125>/LessThanOrEqual' */
  99:HANcoder_E407_CAN_COMM_TEST.c **** boolean_T OF1_CAN1;                    /* '<S126>/LessThanOrEqual' */
 100:HANcoder_E407_CAN_COMM_TEST.c **** boolean_T OF2_CAN2;                    /* '<S113>/LessThanOrEqual' */
 101:HANcoder_E407_CAN_COMM_TEST.c **** boolean_T OF3_CAN2;                    /* '<S114>/LessThanOrEqual' */
 102:HANcoder_E407_CAN_COMM_TEST.c **** boolean_T OF4_CAN2;                    /* '<S115>/LessThanOrEqual' */
 103:HANcoder_E407_CAN_COMM_TEST.c **** boolean_T OF5_CAN2;                    /* '<S116>/LessThanOrEqual' */
 104:HANcoder_E407_CAN_COMM_TEST.c **** boolean_T OF6_CAN2;                    /* '<S117>/LessThanOrEqual' */
 105:HANcoder_E407_CAN_COMM_TEST.c **** boolean_T OF7_CAN2;                    /* '<S118>/LessThanOrEqual' */
 106:HANcoder_E407_CAN_COMM_TEST.c **** boolean_T OF8_CAN2;                    /* '<S119>/LessThanOrEqual' */
 107:HANcoder_E407_CAN_COMM_TEST.c **** boolean_T OF1_CAN2;                    /* '<S127>/LessThanOrEqual' */
 108:HANcoder_E407_CAN_COMM_TEST.c **** 
 109:HANcoder_E407_CAN_COMM_TEST.c **** /* Exported block parameters */
 110:HANcoder_E407_CAN_COMM_TEST.c **** real_T Tx_Buffer_1_CAN1 = 0.0;         /* Variable: Tx_Buffer_1_CAN1
 111:HANcoder_E407_CAN_COMM_TEST.c ****                                         * Referenced by: '<S12>/magnitude'
 112:HANcoder_E407_CAN_COMM_TEST.c ****                                         */
 113:HANcoder_E407_CAN_COMM_TEST.c **** real_T Tx_Buffer_1_CAN2 = 0.0;         /* Variable: Tx_Buffer_1_CAN2
 114:HANcoder_E407_CAN_COMM_TEST.c ****                                         * Referenced by: '<S12>/magnitude8'
 115:HANcoder_E407_CAN_COMM_TEST.c ****                                         */
 116:HANcoder_E407_CAN_COMM_TEST.c **** real_T Tx_Buffer_2_CAN1 = 0.0;         /* Variable: Tx_Buffer_2_CAN1
 117:HANcoder_E407_CAN_COMM_TEST.c ****                                         * Referenced by: '<S12>/magnitude1'
 118:HANcoder_E407_CAN_COMM_TEST.c ****                                         */
 119:HANcoder_E407_CAN_COMM_TEST.c **** real_T Tx_Buffer_2_CAN2 = 0.0;         /* Variable: Tx_Buffer_2_CAN2
 120:HANcoder_E407_CAN_COMM_TEST.c ****                                         * Referenced by: '<S12>/magnitude9'
 121:HANcoder_E407_CAN_COMM_TEST.c ****                                         */
 122:HANcoder_E407_CAN_COMM_TEST.c **** real_T Tx_Buffer_3_CAN1 = 0.0;         /* Variable: Tx_Buffer_3_CAN1
 123:HANcoder_E407_CAN_COMM_TEST.c ****                                         * Referenced by: '<S12>/magnitude2'
 124:HANcoder_E407_CAN_COMM_TEST.c ****                                         */
 125:HANcoder_E407_CAN_COMM_TEST.c **** real_T Tx_Buffer_3_CAN2 = 0.0;         /* Variable: Tx_Buffer_3_CAN2
 126:HANcoder_E407_CAN_COMM_TEST.c ****                                         * Referenced by: '<S12>/magnitude10'
 127:HANcoder_E407_CAN_COMM_TEST.c ****                                         */
 128:HANcoder_E407_CAN_COMM_TEST.c **** real_T Tx_Buffer_4_CAN1 = 0.0;         /* Variable: Tx_Buffer_4_CAN1
 129:HANcoder_E407_CAN_COMM_TEST.c ****                                         * Referenced by: '<S12>/magnitude3'
 130:HANcoder_E407_CAN_COMM_TEST.c ****                                         */
 131:HANcoder_E407_CAN_COMM_TEST.c **** real_T Tx_Buffer_4_CAN2 = 0.0;         /* Variable: Tx_Buffer_4_CAN2
 132:HANcoder_E407_CAN_COMM_TEST.c ****                                         * Referenced by: '<S12>/magnitude11'
 133:HANcoder_E407_CAN_COMM_TEST.c ****                                         */
 134:HANcoder_E407_CAN_COMM_TEST.c **** real_T Tx_Buffer_5_CAN1 = 0.0;         /* Variable: Tx_Buffer_5_CAN1
 135:HANcoder_E407_CAN_COMM_TEST.c ****                                         * Referenced by: '<S12>/magnitude4'
 136:HANcoder_E407_CAN_COMM_TEST.c ****                                         */
 137:HANcoder_E407_CAN_COMM_TEST.c **** real_T Tx_Buffer_5_CAN2 = 0.0;         /* Variable: Tx_Buffer_5_CAN2
 138:HANcoder_E407_CAN_COMM_TEST.c ****                                         * Referenced by: '<S12>/magnitude12'
 139:HANcoder_E407_CAN_COMM_TEST.c ****                                         */
 140:HANcoder_E407_CAN_COMM_TEST.c **** real_T Tx_Buffer_6_CAN1 = 0.0;         /* Variable: Tx_Buffer_6_CAN1
 141:HANcoder_E407_CAN_COMM_TEST.c ****                                         * Referenced by: '<S12>/magnitude5'
 142:HANcoder_E407_CAN_COMM_TEST.c ****                                         */
 143:HANcoder_E407_CAN_COMM_TEST.c **** real_T Tx_Buffer_6_CAN2 = 0.0;         /* Variable: Tx_Buffer_6_CAN2
 144:HANcoder_E407_CAN_COMM_TEST.c ****                                         * Referenced by: '<S12>/magnitude13'
 145:HANcoder_E407_CAN_COMM_TEST.c ****                                         */
 146:HANcoder_E407_CAN_COMM_TEST.c **** real_T Tx_Buffer_7_CAN1 = 0.0;         /* Variable: Tx_Buffer_7_CAN1
 147:HANcoder_E407_CAN_COMM_TEST.c ****                                         * Referenced by: '<S12>/magnitude6'
 148:HANcoder_E407_CAN_COMM_TEST.c ****                                         */
 149:HANcoder_E407_CAN_COMM_TEST.c **** real_T Tx_Buffer_7_CAN2 = 0.0;         /* Variable: Tx_Buffer_7_CAN2
 150:HANcoder_E407_CAN_COMM_TEST.c ****                                         * Referenced by: '<S12>/magnitude14'
 151:HANcoder_E407_CAN_COMM_TEST.c ****                                         */
 152:HANcoder_E407_CAN_COMM_TEST.c **** real_T Tx_Buffer_8_CAN1 = 0.0;         /* Variable: Tx_Buffer_8_CAN1
 153:HANcoder_E407_CAN_COMM_TEST.c ****                                         * Referenced by: '<S12>/magnitude7'
 154:HANcoder_E407_CAN_COMM_TEST.c ****                                         */
 155:HANcoder_E407_CAN_COMM_TEST.c **** real_T Tx_Buffer_8_CAN2 = 0.0;         /* Variable: Tx_Buffer_8_CAN2
 156:HANcoder_E407_CAN_COMM_TEST.c ****                                         * Referenced by: '<S12>/magnitude15'
 157:HANcoder_E407_CAN_COMM_TEST.c ****                                         */
 158:HANcoder_E407_CAN_COMM_TEST.c **** real_T Tx_ID_CAN1 = 0.0;               /* Variable: Tx_ID_CAN1
 159:HANcoder_E407_CAN_COMM_TEST.c ****                                         * Referenced by: '<S12>/Constant'
 160:HANcoder_E407_CAN_COMM_TEST.c ****                                         */
 161:HANcoder_E407_CAN_COMM_TEST.c **** real_T Tx_ID_CAN2 = 0.0;               /* Variable: Tx_ID_CAN2
 162:HANcoder_E407_CAN_COMM_TEST.c ****                                         * Referenced by: '<S12>/Constant1'
 163:HANcoder_E407_CAN_COMM_TEST.c ****                                         */
 164:HANcoder_E407_CAN_COMM_TEST.c **** real_T Tx_Max_CAN1 = 0.0;              /* Variable: Tx_Max_CAN1
 165:HANcoder_E407_CAN_COMM_TEST.c ****                                         * Referenced by: '<S12>/Constant2'
 166:HANcoder_E407_CAN_COMM_TEST.c ****                                         */
 167:HANcoder_E407_CAN_COMM_TEST.c **** real_T Tx_Max_CAN2 = 0.0;              /* Variable: Tx_Max_CAN2
 168:HANcoder_E407_CAN_COMM_TEST.c ****                                         * Referenced by: '<S12>/Constant5'
 169:HANcoder_E407_CAN_COMM_TEST.c ****                                         */
 170:HANcoder_E407_CAN_COMM_TEST.c **** real_T Tx_Min_CAN1 = 0.0;              /* Variable: Tx_Min_CAN1
 171:HANcoder_E407_CAN_COMM_TEST.c ****                                         * Referenced by: '<S12>/Constant3'
 172:HANcoder_E407_CAN_COMM_TEST.c ****                                         */
 173:HANcoder_E407_CAN_COMM_TEST.c **** real_T Tx_Min_CAN2 = 0.0;              /* Variable: Tx_Min_CAN2
 174:HANcoder_E407_CAN_COMM_TEST.c ****                                         * Referenced by: '<S12>/Constant6'
 175:HANcoder_E407_CAN_COMM_TEST.c ****                                         */
 176:HANcoder_E407_CAN_COMM_TEST.c **** real_T precision_CAN1 = 0.0;           /* Variable: precision_CAN1
 177:HANcoder_E407_CAN_COMM_TEST.c ****                                         * Referenced by:
 178:HANcoder_E407_CAN_COMM_TEST.c ****                                         *   '<S10>/Constant3'
 179:HANcoder_E407_CAN_COMM_TEST.c ****                                         *   '<S12>/Constant4'
 180:HANcoder_E407_CAN_COMM_TEST.c ****                                         */
 181:HANcoder_E407_CAN_COMM_TEST.c **** real_T precision_CAN2 = 0.0;           /* Variable: precision_CAN2
 182:HANcoder_E407_CAN_COMM_TEST.c ****                                         * Referenced by:
 183:HANcoder_E407_CAN_COMM_TEST.c ****                                         *   '<S10>/Constant4'
 184:HANcoder_E407_CAN_COMM_TEST.c ****                                         *   '<S12>/Constant7'
 185:HANcoder_E407_CAN_COMM_TEST.c ****                                         */
 186:HANcoder_E407_CAN_COMM_TEST.c **** uint32_T Rx_ID_CAN1 = 0U;              /* Variable: Rx_ID_CAN1
 187:HANcoder_E407_CAN_COMM_TEST.c ****                                         * Referenced by: '<S10>/Constant2'
 188:HANcoder_E407_CAN_COMM_TEST.c ****                                         */
 189:HANcoder_E407_CAN_COMM_TEST.c **** uint32_T Rx_ID_CAN2 = 0U;              /* Variable: Rx_ID_CAN2
 190:HANcoder_E407_CAN_COMM_TEST.c ****                                         * Referenced by: '<S10>/Constant1'
 191:HANcoder_E407_CAN_COMM_TEST.c ****                                         */
 192:HANcoder_E407_CAN_COMM_TEST.c **** boolean_T HANtuneOverride = 0;         /* Variable: HANtuneOverride
 193:HANcoder_E407_CAN_COMM_TEST.c ****                                         * Referenced by: '<S2>/Constant'
 194:HANcoder_E407_CAN_COMM_TEST.c ****                                         */
 195:HANcoder_E407_CAN_COMM_TEST.c **** 
 196:HANcoder_E407_CAN_COMM_TEST.c **** /* Block signals (default storage) */
 197:HANcoder_E407_CAN_COMM_TEST.c **** BlockIO rtB;
 198:HANcoder_E407_CAN_COMM_TEST.c **** 
 199:HANcoder_E407_CAN_COMM_TEST.c **** /* Block states (default storage) */
 200:HANcoder_E407_CAN_COMM_TEST.c **** D_Work rtDWork;
 201:HANcoder_E407_CAN_COMM_TEST.c **** 
 202:HANcoder_E407_CAN_COMM_TEST.c **** /* Real-time model */
 203:HANcoder_E407_CAN_COMM_TEST.c **** RT_MODEL rtM_;
 204:HANcoder_E407_CAN_COMM_TEST.c **** RT_MODEL *const rtM = &rtM_;
 205:HANcoder_E407_CAN_COMM_TEST.c **** static void rate_scheduler(void);
 206:HANcoder_E407_CAN_COMM_TEST.c **** static tCanDataTypes canRxData_0_constant_ID_RXCAN1;
 207:HANcoder_E407_CAN_COMM_TEST.c **** static tCanDataTypes canRxData_1_constant_ID_RXCAN2;
 208:HANcoder_E407_CAN_COMM_TEST.c **** static tCanDataTypes canTxData;
 209:HANcoder_E407_CAN_COMM_TEST.c **** 
 210:HANcoder_E407_CAN_COMM_TEST.c **** /*
 211:HANcoder_E407_CAN_COMM_TEST.c ****  * Swaps the values of two bytes.
 212:HANcoder_E407_CAN_COMM_TEST.c ****  * a, b pointers to data values that need swapping
 213:HANcoder_E407_CAN_COMM_TEST.c ****  */
 214:HANcoder_E407_CAN_COMM_TEST.c **** static void swap(unsigned char *a, unsigned char *b)
 215:HANcoder_E407_CAN_COMM_TEST.c **** {
 216:HANcoder_E407_CAN_COMM_TEST.c ****   register char i = *a;
 217:HANcoder_E407_CAN_COMM_TEST.c ****   *a = *b;
 218:HANcoder_E407_CAN_COMM_TEST.c ****   *b = i;
 219:HANcoder_E407_CAN_COMM_TEST.c **** }                                      /*** end of swap ***/
 220:HANcoder_E407_CAN_COMM_TEST.c **** 
 221:HANcoder_E407_CAN_COMM_TEST.c **** /*
 222:HANcoder_E407_CAN_COMM_TEST.c ****  * Swaps all bytes in b. Typically used to fix endianes.
 223:HANcoder_E407_CAN_COMM_TEST.c ****  * b pointer to data with bytes to swap
 224:HANcoder_E407_CAN_COMM_TEST.c ****  * n number of bytes to swap
 225:HANcoder_E407_CAN_COMM_TEST.c ****  */
 226:HANcoder_E407_CAN_COMM_TEST.c **** void ByteSwap_x(uint8_t *b, size_t n)
 227:HANcoder_E407_CAN_COMM_TEST.c **** {
  29              		.loc 1 227 0
  30              		.cfi_startproc
  31              		@ args = 0, pretend = 0, frame = 0
  32              		@ frame_needed = 0, uses_anonymous_args = 0
  33              		@ link register save eliminated.
  34              	.LVL0:
 228:HANcoder_E407_CAN_COMM_TEST.c ****   int i = 0;
 229:HANcoder_E407_CAN_COMM_TEST.c ****   int j = n-1;
  35              		.loc 1 229 0
  36 0000 4B1E     		subs	r3, r1, #1
  37              	.LVL1:
 230:HANcoder_E407_CAN_COMM_TEST.c ****   while (i<j) {
  38              		.loc 1 230 0
  39 0002 002B     		cmp	r3, #0
  40 0004 11DD     		ble	.L8
 227:HANcoder_E407_CAN_COMM_TEST.c ****   int i = 0;
  41              		.loc 1 227 0
  42 0006 70B4     		push	{r4, r5, r6}
  43              		.cfi_def_cfa_offset 12
  44              		.cfi_offset 4, -12
  45              		.cfi_offset 5, -8
  46              		.cfi_offset 6, -4
  47 0008 441E     		subs	r4, r0, #1
  48 000a 0144     		add	r1, r1, r0
  49              	.LVL2:
  50              		.loc 1 230 0
  51 000c 0022     		movs	r2, #0
  52 000e 2046     		mov	r0, r4
  53              	.LVL3:
  54              	.L3:
 231:HANcoder_E407_CAN_COMM_TEST.c ****     swap(&b[i], &b[j]);
 232:HANcoder_E407_CAN_COMM_TEST.c ****     i++, j--;
  55              		.loc 1 232 0
  56 0010 0132     		adds	r2, r2, #1
  57              	.LVL4:
  58 0012 013B     		subs	r3, r3, #1
  59              	.LVL5:
  60              	.LBB102:
  61              	.LBB103:
 216:HANcoder_E407_CAN_COMM_TEST.c ****   *a = *b;
  62              		.loc 1 216 0
  63 0014 14F8015F 		ldrb	r5, [r4, #1]!	@ zero_extendqisi2
  64              	.LVL6:
 217:HANcoder_E407_CAN_COMM_TEST.c ****   *b = i;
  65              		.loc 1 217 0
  66 0018 11F8016C 		ldrb	r6, [r1, #-1]	@ zero_extendqisi2
  67 001c 00F8016F 		strb	r6, [r0, #1]!
  68              	.LBE103:
  69              	.LBE102:
 230:HANcoder_E407_CAN_COMM_TEST.c ****     swap(&b[i], &b[j]);
  70              		.loc 1 230 0
  71 0020 9A42     		cmp	r2, r3
  72              	.LBB105:
  73              	.LBB104:
 218:HANcoder_E407_CAN_COMM_TEST.c **** }                                      /*** end of swap ***/
  74              		.loc 1 218 0
  75 0022 01F8015D 		strb	r5, [r1, #-1]!
  76              	.LVL7:
  77              	.LBE104:
  78              	.LBE105:
 230:HANcoder_E407_CAN_COMM_TEST.c ****     swap(&b[i], &b[j]);
  79              		.loc 1 230 0
  80 0026 F3DB     		blt	.L3
 233:HANcoder_E407_CAN_COMM_TEST.c ****   }
 234:HANcoder_E407_CAN_COMM_TEST.c **** }
  81              		.loc 1 234 0
  82 0028 70BC     		pop	{r4, r5, r6}
  83              		.cfi_restore 6
  84              		.cfi_restore 5
  85              		.cfi_restore 4
  86              		.cfi_def_cfa_offset 0
  87              	.LVL8:
  88              	.L8:
  89 002a 7047     		bx	lr
  90              		.cfi_endproc
  91              	.LFE112:
  93              		.section	.text.BitShift,"ax",%progbits
  94              		.align	2
  95              		.global	BitShift
  96              		.thumb
  97              		.thumb_func
  99              	BitShift:
 100              	.LFB114:
 235:HANcoder_E407_CAN_COMM_TEST.c **** 
 236:HANcoder_E407_CAN_COMM_TEST.c **** /*
 237:HANcoder_E407_CAN_COMM_TEST.c ****  *   This function updates active task flag for each subrate.
 238:HANcoder_E407_CAN_COMM_TEST.c ****  * The function is called at model base rate, hence the
 239:HANcoder_E407_CAN_COMM_TEST.c ****  * generated code self-manages all its subrates.
 240:HANcoder_E407_CAN_COMM_TEST.c ****  */
 241:HANcoder_E407_CAN_COMM_TEST.c **** static void rate_scheduler(void)
 242:HANcoder_E407_CAN_COMM_TEST.c **** {
 243:HANcoder_E407_CAN_COMM_TEST.c ****   /* Compute which subrates run during the next base time step.  Subrates
 244:HANcoder_E407_CAN_COMM_TEST.c ****    * are an integer multiple of the base rate counter.  Therefore, the subtask
 245:HANcoder_E407_CAN_COMM_TEST.c ****    * counter is reset when it reaches its limit (zero means run).
 246:HANcoder_E407_CAN_COMM_TEST.c ****    */
 247:HANcoder_E407_CAN_COMM_TEST.c ****   (rtM->Timing.TaskCounters.TID[1])++;
 248:HANcoder_E407_CAN_COMM_TEST.c ****   if ((rtM->Timing.TaskCounters.TID[1]) > 9) {/* Sample time: [0.1s, 0.0s] */
 249:HANcoder_E407_CAN_COMM_TEST.c ****     rtM->Timing.TaskCounters.TID[1] = 0;
 250:HANcoder_E407_CAN_COMM_TEST.c ****   }
 251:HANcoder_E407_CAN_COMM_TEST.c **** 
 252:HANcoder_E407_CAN_COMM_TEST.c ****   (rtM->Timing.TaskCounters.TID[2])++;
 253:HANcoder_E407_CAN_COMM_TEST.c ****   if ((rtM->Timing.TaskCounters.TID[2]) > 19) {/* Sample time: [0.2s, 0.0s] */
 254:HANcoder_E407_CAN_COMM_TEST.c ****     rtM->Timing.TaskCounters.TID[2] = 0;
 255:HANcoder_E407_CAN_COMM_TEST.c ****   }
 256:HANcoder_E407_CAN_COMM_TEST.c **** }
 257:HANcoder_E407_CAN_COMM_TEST.c **** 
 258:HANcoder_E407_CAN_COMM_TEST.c **** /*
 259:HANcoder_E407_CAN_COMM_TEST.c ****  * Output and update for atomic system:
 260:HANcoder_E407_CAN_COMM_TEST.c ****  *    '<S25>/Bit Shift'
 261:HANcoder_E407_CAN_COMM_TEST.c ****  *    '<S26>/Bit Shift'
 262:HANcoder_E407_CAN_COMM_TEST.c ****  *    '<S27>/Bit Shift'
 263:HANcoder_E407_CAN_COMM_TEST.c ****  *    '<S28>/Bit Shift'
 264:HANcoder_E407_CAN_COMM_TEST.c ****  *    '<S29>/Bit Shift'
 265:HANcoder_E407_CAN_COMM_TEST.c ****  *    '<S30>/Bit Shift'
 266:HANcoder_E407_CAN_COMM_TEST.c ****  *    '<S31>/Bit Shift'
 267:HANcoder_E407_CAN_COMM_TEST.c ****  *    '<S32>/Bit Shift'
 268:HANcoder_E407_CAN_COMM_TEST.c ****  *    '<S33>/Bit Shift'
 269:HANcoder_E407_CAN_COMM_TEST.c ****  *    '<S34>/Bit Shift'
 270:HANcoder_E407_CAN_COMM_TEST.c ****  *    ...
 271:HANcoder_E407_CAN_COMM_TEST.c ****  */
 272:HANcoder_E407_CAN_COMM_TEST.c **** void BitShift(uint8_T rtu_u, rtB_BitShift *localB)
 273:HANcoder_E407_CAN_COMM_TEST.c **** {
 101              		.loc 1 273 0
 102              		.cfi_startproc
 103              		@ args = 0, pretend = 0, frame = 0
 104              		@ frame_needed = 0, uses_anonymous_args = 0
 105              		@ link register save eliminated.
 106              	.LVL9:
 274:HANcoder_E407_CAN_COMM_TEST.c ****   /* MATLAB Function: '<S43>/bit_shift' */
 275:HANcoder_E407_CAN_COMM_TEST.c ****   /* MATLAB Function 'Logic and Bit Operations/Bit Shift/bit_shift': '<S45>:1' */
 276:HANcoder_E407_CAN_COMM_TEST.c ****   /* '<S45>:1:8' */
 277:HANcoder_E407_CAN_COMM_TEST.c ****   localB->y = (uint8_T)((uint32_T)rtu_u >> 7);
 107              		.loc 1 277 0
 108 0000 C009     		lsrs	r0, r0, #7
 109              	.LVL10:
 110 0002 0870     		strb	r0, [r1]
 111 0004 7047     		bx	lr
 112              		.cfi_endproc
 113              	.LFE114:
 115 0006 00BF     		.section	.text.BitShift1,"ax",%progbits
 116              		.align	2
 117              		.global	BitShift1
 118              		.thumb
 119              		.thumb_func
 121              	BitShift1:
 122              	.LFB115:
 278:HANcoder_E407_CAN_COMM_TEST.c **** }
 279:HANcoder_E407_CAN_COMM_TEST.c **** 
 280:HANcoder_E407_CAN_COMM_TEST.c **** /*
 281:HANcoder_E407_CAN_COMM_TEST.c ****  * Output and update for atomic system:
 282:HANcoder_E407_CAN_COMM_TEST.c ****  *    '<S25>/Bit Shift1'
 283:HANcoder_E407_CAN_COMM_TEST.c ****  *    '<S26>/Bit Shift1'
 284:HANcoder_E407_CAN_COMM_TEST.c ****  *    '<S27>/Bit Shift1'
 285:HANcoder_E407_CAN_COMM_TEST.c ****  *    '<S28>/Bit Shift1'
 286:HANcoder_E407_CAN_COMM_TEST.c ****  *    '<S29>/Bit Shift1'
 287:HANcoder_E407_CAN_COMM_TEST.c ****  *    '<S30>/Bit Shift1'
 288:HANcoder_E407_CAN_COMM_TEST.c ****  *    '<S31>/Bit Shift1'
 289:HANcoder_E407_CAN_COMM_TEST.c ****  *    '<S32>/Bit Shift1'
 290:HANcoder_E407_CAN_COMM_TEST.c ****  *    '<S33>/Bit Shift1'
 291:HANcoder_E407_CAN_COMM_TEST.c ****  *    '<S34>/Bit Shift1'
 292:HANcoder_E407_CAN_COMM_TEST.c ****  *    ...
 293:HANcoder_E407_CAN_COMM_TEST.c ****  */
 294:HANcoder_E407_CAN_COMM_TEST.c **** void BitShift1(uint8_T rtu_u, rtB_BitShift1 *localB)
 295:HANcoder_E407_CAN_COMM_TEST.c **** {
 123              		.loc 1 295 0
 124              		.cfi_startproc
 125              		@ args = 0, pretend = 0, frame = 0
 126              		@ frame_needed = 0, uses_anonymous_args = 0
 127              		@ link register save eliminated.
 128              	.LVL11:
 296:HANcoder_E407_CAN_COMM_TEST.c ****   /* MATLAB Function: '<S44>/bit_shift' */
 297:HANcoder_E407_CAN_COMM_TEST.c ****   /* MATLAB Function 'Logic and Bit Operations/Bit Shift/bit_shift': '<S46>:1' */
 298:HANcoder_E407_CAN_COMM_TEST.c ****   /* '<S46>:1:6' */
 299:HANcoder_E407_CAN_COMM_TEST.c ****   localB->y = (uint8_T)(rtu_u << 7);
 129              		.loc 1 299 0
 130 0000 C001     		lsls	r0, r0, #7
 131              	.LVL12:
 132 0002 0870     		strb	r0, [r1]
 133 0004 7047     		bx	lr
 134              		.cfi_endproc
 135              	.LFE115:
 137              		.global	__aeabi_i2d
 138              		.global	__aeabi_ddiv
 139              		.global	__aeabi_dcmplt
 140              		.global	__aeabi_dmul
 141              		.global	__aeabi_dsub
 142              		.global	__aeabi_dadd
 143              		.global	__aeabi_dcmpge
 144              		.global	__aeabi_d2uiz
 145 0006 00BF     		.section	.text.HANcoder_E407_CAN_COMM_TEST_step,"ax",%progbits
 146              		.align	2
 147              		.global	HANcoder_E407_CAN_COMM_TEST_step
 148              		.thumb
 149              		.thumb_func
 151              	HANcoder_E407_CAN_COMM_TEST_step:
 152              	.LFB116:
 300:HANcoder_E407_CAN_COMM_TEST.c **** }
 301:HANcoder_E407_CAN_COMM_TEST.c **** 
 302:HANcoder_E407_CAN_COMM_TEST.c **** /* Model step function */
 303:HANcoder_E407_CAN_COMM_TEST.c **** void HANcoder_E407_CAN_COMM_TEST_step(void)
 304:HANcoder_E407_CAN_COMM_TEST.c **** {
 153              		.loc 1 304 0
 154              		.cfi_startproc
 155              		@ args = 0, pretend = 0, frame = 56
 156              		@ frame_needed = 0, uses_anonymous_args = 0
 157 0000 2DE9F04F 		push	{r4, r5, r6, r7, r8, r9, r10, fp, lr}
 158              		.cfi_def_cfa_offset 36
 159              		.cfi_offset 4, -36
 160              		.cfi_offset 5, -32
 161              		.cfi_offset 6, -28
 162              		.cfi_offset 7, -24
 163              		.cfi_offset 8, -20
 164              		.cfi_offset 9, -16
 165              		.cfi_offset 10, -12
 166              		.cfi_offset 11, -8
 167              		.cfi_offset 14, -4
 305:HANcoder_E407_CAN_COMM_TEST.c ****   /* local block i/o variables */
 306:HANcoder_E407_CAN_COMM_TEST.c ****   uint8_T rtb_SFunction_o2;
 307:HANcoder_E407_CAN_COMM_TEST.c ****   uint8_T rtb_SFunction_o3;
 308:HANcoder_E407_CAN_COMM_TEST.c ****   uint8_T rtb_SFunction_o4;
 309:HANcoder_E407_CAN_COMM_TEST.c ****   uint8_T rtb_SFunction_o5;
 310:HANcoder_E407_CAN_COMM_TEST.c ****   uint8_T rtb_SFunction_o6;
 311:HANcoder_E407_CAN_COMM_TEST.c ****   uint8_T rtb_SFunction_o7;
 312:HANcoder_E407_CAN_COMM_TEST.c ****   uint8_T rtb_SFunction_o8;
 313:HANcoder_E407_CAN_COMM_TEST.c ****   uint8_T rtb_SFunction_o9;
 314:HANcoder_E407_CAN_COMM_TEST.c ****   uint8_T rtb_SFunction_o2_e;
 315:HANcoder_E407_CAN_COMM_TEST.c ****   uint8_T rtb_SFunction_o3_a;
 316:HANcoder_E407_CAN_COMM_TEST.c ****   uint8_T rtb_SFunction_o4_k;
 317:HANcoder_E407_CAN_COMM_TEST.c ****   uint8_T rtb_SFunction_o5_i;
 318:HANcoder_E407_CAN_COMM_TEST.c ****   uint8_T rtb_SFunction_o6_p;
 319:HANcoder_E407_CAN_COMM_TEST.c ****   uint8_T rtb_SFunction_o7_l;
 320:HANcoder_E407_CAN_COMM_TEST.c ****   uint8_T rtb_SFunction_o8_j;
 321:HANcoder_E407_CAN_COMM_TEST.c ****   uint8_T rtb_SFunction_o9_d;
 322:HANcoder_E407_CAN_COMM_TEST.c ****   uint8_T rtb_Output;
 323:HANcoder_E407_CAN_COMM_TEST.c ****   real_T rtb_Switch2;
 324:HANcoder_E407_CAN_COMM_TEST.c ****   real_T rtb_Power2;
 325:HANcoder_E407_CAN_COMM_TEST.c ****   real_T rtb_Fix;
 326:HANcoder_E407_CAN_COMM_TEST.c ****   real_T rtb_Fix1;
 327:HANcoder_E407_CAN_COMM_TEST.c ****   real_T rtb_Minus;
 328:HANcoder_E407_CAN_COMM_TEST.c ****   uint8_T rtb_FixPtSum1;
 329:HANcoder_E407_CAN_COMM_TEST.c ****   uint8_T rtb_FixPtSum1_b;
 330:HANcoder_E407_CAN_COMM_TEST.c ****   uint8_T rtb_Cast;
 331:HANcoder_E407_CAN_COMM_TEST.c ****   uint8_T rtb_Cast_hi;
 332:HANcoder_E407_CAN_COMM_TEST.c ****   uint8_T rtb_Cast_lf;
 333:HANcoder_E407_CAN_COMM_TEST.c ****   uint8_T rtb_Cast_n;
 334:HANcoder_E407_CAN_COMM_TEST.c ****   uint8_T rtb_Cast_p;
 335:HANcoder_E407_CAN_COMM_TEST.c ****   uint8_T rtb_Cast_l;
 336:HANcoder_E407_CAN_COMM_TEST.c ****   uint8_T rtb_Cast_e4;
 337:HANcoder_E407_CAN_COMM_TEST.c ****   uint8_T rtb_Cast_eg;
 338:HANcoder_E407_CAN_COMM_TEST.c ****   uint8_T rtb_Cast_h;
 339:HANcoder_E407_CAN_COMM_TEST.c ****   uint8_T rtb_Cast_ga;
 340:HANcoder_E407_CAN_COMM_TEST.c ****   uint8_T rtb_Cast_o;
 341:HANcoder_E407_CAN_COMM_TEST.c ****   uint8_T rtb_Cast_f;
 342:HANcoder_E407_CAN_COMM_TEST.c ****   uint8_T rtb_Cast_k2;
 343:HANcoder_E407_CAN_COMM_TEST.c ****   uint8_T rtb_Cast_m;
 344:HANcoder_E407_CAN_COMM_TEST.c ****   uint8_T rtb_Cast_g;
 345:HANcoder_E407_CAN_COMM_TEST.c ****   uint8_T rtb_Cast_k;
 346:HANcoder_E407_CAN_COMM_TEST.c ****   real_T rtb_Fix1_tmp;
 347:HANcoder_E407_CAN_COMM_TEST.c ****   if (rtM->Timing.TaskCounters.TID[1] == 0) {
 168              		.loc 1 347 0
 169 0004 DFF8C8A0 		ldr	r10, .L420+24
 170 0008 9AF80130 		ldrb	r3, [r10, #1]	@ zero_extendqisi2
 304:HANcoder_E407_CAN_COMM_TEST.c ****   /* local block i/o variables */
 171              		.loc 1 304 0
 172 000c 91B0     		sub	sp, sp, #68
 173              		.cfi_def_cfa_offset 104
 174              		.loc 1 347 0
 175 000e 002B     		cmp	r3, #0
 176 0010 62D0     		beq	.L333
 348:HANcoder_E407_CAN_COMM_TEST.c ****     /* M-S-Function: '<S21>/Level-2 M-file S-Function' */
 349:HANcoder_E407_CAN_COMM_TEST.c ****     /* read from digital input */
 350:HANcoder_E407_CAN_COMM_TEST.c ****     WKUP_button = DiginGet(DIGIN_PORTA_PIN0);
 351:HANcoder_E407_CAN_COMM_TEST.c **** 
 352:HANcoder_E407_CAN_COMM_TEST.c ****     /* M-S-Function: '<S7>/Level-2 M-file S-Function' */
 353:HANcoder_E407_CAN_COMM_TEST.c ****     /* read from digital input */
 354:HANcoder_E407_CAN_COMM_TEST.c ****     receiver_id = DiginGet(DIGIN_PORTE_PIN4);
 355:HANcoder_E407_CAN_COMM_TEST.c **** 
 356:HANcoder_E407_CAN_COMM_TEST.c ****     /* Outputs for Enabled SubSystem: '<S1>/Rx CAN' incorporates:
 357:HANcoder_E407_CAN_COMM_TEST.c ****      *  EnablePort: '<S10>/Enable'
 358:HANcoder_E407_CAN_COMM_TEST.c ****      */
 359:HANcoder_E407_CAN_COMM_TEST.c ****     /* Logic: '<S1>/AND1' incorporates:
 360:HANcoder_E407_CAN_COMM_TEST.c ****      *  Constant: '<S10>/Constant1'
 361:HANcoder_E407_CAN_COMM_TEST.c ****      *  Constant: '<S10>/Constant2'
 362:HANcoder_E407_CAN_COMM_TEST.c ****      */
 363:HANcoder_E407_CAN_COMM_TEST.c ****     if (WKUP_button && receiver_id) {
 364:HANcoder_E407_CAN_COMM_TEST.c ****       if (!rtDWork.RxCAN_MODE) {
 365:HANcoder_E407_CAN_COMM_TEST.c ****         rtDWork.RxCAN_MODE = true;
 366:HANcoder_E407_CAN_COMM_TEST.c ****       }
 367:HANcoder_E407_CAN_COMM_TEST.c **** 
 368:HANcoder_E407_CAN_COMM_TEST.c ****       /* M-S-Function: '<S23>/S-Function' */
 369:HANcoder_E407_CAN_COMM_TEST.c **** 
 370:HANcoder_E407_CAN_COMM_TEST.c ****       /* read the message data and store the new parameter */
 371:HANcoder_E407_CAN_COMM_TEST.c ****       new_CAN1 = CanIoGetMessage(0, constant_ID_RXCAN1, NULL,
 372:HANcoder_E407_CAN_COMM_TEST.c ****         &canRxData_0_constant_ID_RXCAN1.uint8_T_info[0], NULL);
 373:HANcoder_E407_CAN_COMM_TEST.c **** 
 374:HANcoder_E407_CAN_COMM_TEST.c ****       /* process the message data */
 375:HANcoder_E407_CAN_COMM_TEST.c ****       if (new_CAN1 > 0) {
 376:HANcoder_E407_CAN_COMM_TEST.c ****         /* read the data */
 377:HANcoder_E407_CAN_COMM_TEST.c ****         rtb_SFunction_o2 = canRxData_0_constant_ID_RXCAN1.uint8_T_info[0];
 378:HANcoder_E407_CAN_COMM_TEST.c ****         rtb_SFunction_o3 = canRxData_0_constant_ID_RXCAN1.uint8_T_info[1];
 379:HANcoder_E407_CAN_COMM_TEST.c ****         rtb_SFunction_o4 = canRxData_0_constant_ID_RXCAN1.uint8_T_info[2];
 380:HANcoder_E407_CAN_COMM_TEST.c ****         rtb_SFunction_o5 = canRxData_0_constant_ID_RXCAN1.uint8_T_info[3];
 381:HANcoder_E407_CAN_COMM_TEST.c ****         rtb_SFunction_o6 = canRxData_0_constant_ID_RXCAN1.uint8_T_info[4];
 382:HANcoder_E407_CAN_COMM_TEST.c ****         rtb_SFunction_o7 = canRxData_0_constant_ID_RXCAN1.uint8_T_info[5];
 383:HANcoder_E407_CAN_COMM_TEST.c ****         rtb_SFunction_o8 = canRxData_0_constant_ID_RXCAN1.uint8_T_info[6];
 384:HANcoder_E407_CAN_COMM_TEST.c ****         rtb_SFunction_o9 = canRxData_0_constant_ID_RXCAN1.uint8_T_info[7];
 385:HANcoder_E407_CAN_COMM_TEST.c ****       }
 386:HANcoder_E407_CAN_COMM_TEST.c **** 
 387:HANcoder_E407_CAN_COMM_TEST.c ****       /* Outputs for Enabled SubSystem: '<S23>/Enabled Subsystem' incorporates:
 388:HANcoder_E407_CAN_COMM_TEST.c ****        *  EnablePort: '<S41>/Enable'
 389:HANcoder_E407_CAN_COMM_TEST.c ****        */
 390:HANcoder_E407_CAN_COMM_TEST.c ****       if (new_CAN1 > 0) {
 391:HANcoder_E407_CAN_COMM_TEST.c ****         Rx_coded1_CAN1 = rtb_SFunction_o2;
 392:HANcoder_E407_CAN_COMM_TEST.c ****         Rx_coded2_CAN1 = rtb_SFunction_o3;
 393:HANcoder_E407_CAN_COMM_TEST.c ****         Rx_coded3_CAN1 = rtb_SFunction_o4;
 394:HANcoder_E407_CAN_COMM_TEST.c ****         Rx_coded4_CAN1 = rtb_SFunction_o5;
 395:HANcoder_E407_CAN_COMM_TEST.c ****         Rx_coded5_CAN1 = rtb_SFunction_o6;
 396:HANcoder_E407_CAN_COMM_TEST.c ****         Rx_coded6_CAN1 = rtb_SFunction_o7;
 397:HANcoder_E407_CAN_COMM_TEST.c ****         Rx_coded7_CAN1 = rtb_SFunction_o8;
 398:HANcoder_E407_CAN_COMM_TEST.c ****         Rx_coded8_CAN1 = rtb_SFunction_o9;
 399:HANcoder_E407_CAN_COMM_TEST.c ****       }
 400:HANcoder_E407_CAN_COMM_TEST.c **** 
 401:HANcoder_E407_CAN_COMM_TEST.c ****       /* End of Outputs for SubSystem: '<S23>/Enabled Subsystem' */
 402:HANcoder_E407_CAN_COMM_TEST.c **** 
 403:HANcoder_E407_CAN_COMM_TEST.c ****       /* Outputs for Atomic SubSystem: '<S25>/Bit Shift' */
 404:HANcoder_E407_CAN_COMM_TEST.c ****       BitShift(Rx_coded1_CAN1, &rtB.BitShift_d);
 405:HANcoder_E407_CAN_COMM_TEST.c **** 
 406:HANcoder_E407_CAN_COMM_TEST.c ****       /* End of Outputs for SubSystem: '<S25>/Bit Shift' */
 407:HANcoder_E407_CAN_COMM_TEST.c **** 
 408:HANcoder_E407_CAN_COMM_TEST.c ****       /* Outputs for Atomic SubSystem: '<S25>/Bit Shift1' */
 409:HANcoder_E407_CAN_COMM_TEST.c ****       BitShift1(rtB.BitShift_d.y, &rtB.BitShift1_e);
 410:HANcoder_E407_CAN_COMM_TEST.c **** 
 411:HANcoder_E407_CAN_COMM_TEST.c ****       /* End of Outputs for SubSystem: '<S25>/Bit Shift1' */
 412:HANcoder_E407_CAN_COMM_TEST.c **** 
 413:HANcoder_E407_CAN_COMM_TEST.c ****       /* Sum: '<S25>/Minus' incorporates:
 414:HANcoder_E407_CAN_COMM_TEST.c ****        *  DataTypeConversion: '<S25>/Cast1'
 415:HANcoder_E407_CAN_COMM_TEST.c ****        *  Inport: '<S41>/In1'
 416:HANcoder_E407_CAN_COMM_TEST.c ****        *  Inport: '<S41>/In2'
 417:HANcoder_E407_CAN_COMM_TEST.c ****        *  Inport: '<S41>/In3'
 418:HANcoder_E407_CAN_COMM_TEST.c ****        *  Inport: '<S41>/In4'
 419:HANcoder_E407_CAN_COMM_TEST.c ****        *  Inport: '<S41>/In5'
 420:HANcoder_E407_CAN_COMM_TEST.c ****        *  Inport: '<S41>/In6'
 421:HANcoder_E407_CAN_COMM_TEST.c ****        *  Inport: '<S41>/In7'
 422:HANcoder_E407_CAN_COMM_TEST.c ****        *  Inport: '<S41>/In8'
 423:HANcoder_E407_CAN_COMM_TEST.c ****        */
 424:HANcoder_E407_CAN_COMM_TEST.c ****       rtb_Power2 = Rx_coded1_CAN1 - rtB.BitShift1_e.y;
 425:HANcoder_E407_CAN_COMM_TEST.c **** 
 426:HANcoder_E407_CAN_COMM_TEST.c ****       /* Math: '<S25>/Power1' incorporates:
 427:HANcoder_E407_CAN_COMM_TEST.c ****        *  Constant: '<S10>/Constant3'
 428:HANcoder_E407_CAN_COMM_TEST.c ****        *  Constant: '<S25>/Constant2'
 429:HANcoder_E407_CAN_COMM_TEST.c ****        *  Math: '<S32>/Power1'
 430:HANcoder_E407_CAN_COMM_TEST.c ****        *  Math: '<S33>/Power1'
 431:HANcoder_E407_CAN_COMM_TEST.c ****        *  Math: '<S34>/Power1'
 432:HANcoder_E407_CAN_COMM_TEST.c ****        *  Math: '<S35>/Power1'
 433:HANcoder_E407_CAN_COMM_TEST.c ****        *  Math: '<S36>/Power1'
 434:HANcoder_E407_CAN_COMM_TEST.c ****        *  Math: '<S37>/Power1'
 435:HANcoder_E407_CAN_COMM_TEST.c ****        *  Math: '<S38>/Power1'
 436:HANcoder_E407_CAN_COMM_TEST.c ****        */
 437:HANcoder_E407_CAN_COMM_TEST.c ****       rtb_Minus = floor(precision_CAN1);
 438:HANcoder_E407_CAN_COMM_TEST.c ****       if ((2.0 < 0.0) && (precision_CAN1 > rtb_Minus)) {
 439:HANcoder_E407_CAN_COMM_TEST.c ****         rtb_Switch2 = -pow(-2.0, precision_CAN1);
 440:HANcoder_E407_CAN_COMM_TEST.c ****       } else {
 441:HANcoder_E407_CAN_COMM_TEST.c ****         rtb_Switch2 = pow(2.0, precision_CAN1);
 442:HANcoder_E407_CAN_COMM_TEST.c ****       }
 443:HANcoder_E407_CAN_COMM_TEST.c **** 
 444:HANcoder_E407_CAN_COMM_TEST.c ****       /* End of Math: '<S25>/Power1' */
 445:HANcoder_E407_CAN_COMM_TEST.c **** 
 446:HANcoder_E407_CAN_COMM_TEST.c ****       /* Product: '<S25>/Divide' */
 447:HANcoder_E407_CAN_COMM_TEST.c ****       rtb_Fix = rtb_Power2 / rtb_Switch2;
 448:HANcoder_E407_CAN_COMM_TEST.c **** 
 449:HANcoder_E407_CAN_COMM_TEST.c ****       /* Rounding: '<S25>/Fix1' */
 450:HANcoder_E407_CAN_COMM_TEST.c ****       if (rtb_Fix < 0.0) {
 451:HANcoder_E407_CAN_COMM_TEST.c ****         rtb_Fix = ceil(rtb_Fix);
 452:HANcoder_E407_CAN_COMM_TEST.c ****       } else {
 453:HANcoder_E407_CAN_COMM_TEST.c ****         rtb_Fix = floor(rtb_Fix);
 454:HANcoder_E407_CAN_COMM_TEST.c ****       }
 455:HANcoder_E407_CAN_COMM_TEST.c **** 
 456:HANcoder_E407_CAN_COMM_TEST.c ****       /* End of Rounding: '<S25>/Fix1' */
 457:HANcoder_E407_CAN_COMM_TEST.c **** 
 458:HANcoder_E407_CAN_COMM_TEST.c ****       /* Sum: '<S25>/Minus1' incorporates:
 459:HANcoder_E407_CAN_COMM_TEST.c ****        *  Product: '<S25>/Multiply1'
 460:HANcoder_E407_CAN_COMM_TEST.c ****        */
 461:HANcoder_E407_CAN_COMM_TEST.c ****       rtb_Power2 -= rtb_Fix * rtb_Switch2;
 462:HANcoder_E407_CAN_COMM_TEST.c **** 
 463:HANcoder_E407_CAN_COMM_TEST.c ****       /* Gain: '<S25>/Gain' incorporates:
 464:HANcoder_E407_CAN_COMM_TEST.c ****        *  Constant: '<S10>/Constant3'
 465:HANcoder_E407_CAN_COMM_TEST.c ****        *  Gain: '<S32>/Gain'
 466:HANcoder_E407_CAN_COMM_TEST.c ****        *  Gain: '<S33>/Gain'
 467:HANcoder_E407_CAN_COMM_TEST.c ****        *  Gain: '<S34>/Gain'
 468:HANcoder_E407_CAN_COMM_TEST.c ****        *  Gain: '<S35>/Gain'
 469:HANcoder_E407_CAN_COMM_TEST.c ****        *  Gain: '<S36>/Gain'
 470:HANcoder_E407_CAN_COMM_TEST.c ****        *  Gain: '<S37>/Gain'
 471:HANcoder_E407_CAN_COMM_TEST.c ****        *  Gain: '<S38>/Gain'
 472:HANcoder_E407_CAN_COMM_TEST.c ****        */
 473:HANcoder_E407_CAN_COMM_TEST.c ****       rtb_Fix1 = (-1.0) * precision_CAN1;
 474:HANcoder_E407_CAN_COMM_TEST.c **** 
 475:HANcoder_E407_CAN_COMM_TEST.c ****       /* Math: '<S25>/Power' incorporates:
 476:HANcoder_E407_CAN_COMM_TEST.c ****        *  Constant: '<S25>/Constant1'
 477:HANcoder_E407_CAN_COMM_TEST.c ****        *  Gain: '<S25>/Gain'
 478:HANcoder_E407_CAN_COMM_TEST.c ****        */
 479:HANcoder_E407_CAN_COMM_TEST.c ****       if ((2.0 < 0.0) && (rtb_Fix1 > floor(rtb_Fix1))) {
 480:HANcoder_E407_CAN_COMM_TEST.c ****         rtb_Switch2 = -pow(-2.0, rtb_Fix1);
 481:HANcoder_E407_CAN_COMM_TEST.c ****       } else {
 482:HANcoder_E407_CAN_COMM_TEST.c ****         rtb_Switch2 = pow(2.0, rtb_Fix1);
 483:HANcoder_E407_CAN_COMM_TEST.c ****       }
 484:HANcoder_E407_CAN_COMM_TEST.c **** 
 485:HANcoder_E407_CAN_COMM_TEST.c ****       /* End of Math: '<S25>/Power' */
 486:HANcoder_E407_CAN_COMM_TEST.c **** 
 487:HANcoder_E407_CAN_COMM_TEST.c ****       /* Switch: '<S25>/Switch' incorporates:
 488:HANcoder_E407_CAN_COMM_TEST.c ****        *  Gain: '<S25>/Gain1'
 489:HANcoder_E407_CAN_COMM_TEST.c ****        *  Product: '<S25>/Multiply'
 490:HANcoder_E407_CAN_COMM_TEST.c ****        *  Sum: '<S25>/Minus2'
 491:HANcoder_E407_CAN_COMM_TEST.c ****        */
 492:HANcoder_E407_CAN_COMM_TEST.c ****       if (rtB.BitShift_d.y > ((uint8_T)0U)) {
 493:HANcoder_E407_CAN_COMM_TEST.c ****         Rx_Buffer_1_CAN1 = (rtb_Power2 * rtb_Switch2 + rtb_Fix) * (-1.0);
 494:HANcoder_E407_CAN_COMM_TEST.c ****       } else {
 495:HANcoder_E407_CAN_COMM_TEST.c ****         Rx_Buffer_1_CAN1 = rtb_Power2 * rtb_Switch2 + rtb_Fix;
 496:HANcoder_E407_CAN_COMM_TEST.c ****       }
 497:HANcoder_E407_CAN_COMM_TEST.c **** 
 498:HANcoder_E407_CAN_COMM_TEST.c ****       /* End of Switch: '<S25>/Switch' */
 499:HANcoder_E407_CAN_COMM_TEST.c **** 
 500:HANcoder_E407_CAN_COMM_TEST.c ****       /* Outputs for Atomic SubSystem: '<S32>/Bit Shift' */
 501:HANcoder_E407_CAN_COMM_TEST.c ****       BitShift(Rx_coded8_CAN1, &rtB.BitShift_o);
 502:HANcoder_E407_CAN_COMM_TEST.c **** 
 503:HANcoder_E407_CAN_COMM_TEST.c ****       /* End of Outputs for SubSystem: '<S32>/Bit Shift' */
 504:HANcoder_E407_CAN_COMM_TEST.c **** 
 505:HANcoder_E407_CAN_COMM_TEST.c ****       /* Outputs for Atomic SubSystem: '<S32>/Bit Shift1' */
 506:HANcoder_E407_CAN_COMM_TEST.c ****       BitShift1(rtB.BitShift_o.y, &rtB.BitShift1_f);
 507:HANcoder_E407_CAN_COMM_TEST.c **** 
 508:HANcoder_E407_CAN_COMM_TEST.c ****       /* End of Outputs for SubSystem: '<S32>/Bit Shift1' */
 509:HANcoder_E407_CAN_COMM_TEST.c **** 
 510:HANcoder_E407_CAN_COMM_TEST.c ****       /* Sum: '<S32>/Minus' incorporates:
 511:HANcoder_E407_CAN_COMM_TEST.c ****        *  DataTypeConversion: '<S32>/Cast1'
 512:HANcoder_E407_CAN_COMM_TEST.c ****        */
 513:HANcoder_E407_CAN_COMM_TEST.c ****       rtb_Power2 = Rx_coded8_CAN1 - rtB.BitShift1_f.y;
 514:HANcoder_E407_CAN_COMM_TEST.c **** 
 515:HANcoder_E407_CAN_COMM_TEST.c ****       /* Math: '<S32>/Power1' incorporates:
 516:HANcoder_E407_CAN_COMM_TEST.c ****        *  Constant: '<S10>/Constant3'
 517:HANcoder_E407_CAN_COMM_TEST.c ****        *  Constant: '<S32>/Constant2'
 518:HANcoder_E407_CAN_COMM_TEST.c ****        */
 519:HANcoder_E407_CAN_COMM_TEST.c ****       if ((2.0 < 0.0) && (precision_CAN1 > rtb_Minus)) {
 520:HANcoder_E407_CAN_COMM_TEST.c ****         rtb_Switch2 = -pow(-2.0, precision_CAN1);
 521:HANcoder_E407_CAN_COMM_TEST.c ****       } else {
 522:HANcoder_E407_CAN_COMM_TEST.c ****         rtb_Switch2 = pow(2.0, precision_CAN1);
 523:HANcoder_E407_CAN_COMM_TEST.c ****       }
 524:HANcoder_E407_CAN_COMM_TEST.c **** 
 525:HANcoder_E407_CAN_COMM_TEST.c ****       /* Product: '<S32>/Divide' */
 526:HANcoder_E407_CAN_COMM_TEST.c ****       rtb_Fix = rtb_Power2 / rtb_Switch2;
 527:HANcoder_E407_CAN_COMM_TEST.c **** 
 528:HANcoder_E407_CAN_COMM_TEST.c ****       /* Rounding: '<S32>/Fix1' */
 529:HANcoder_E407_CAN_COMM_TEST.c ****       if (rtb_Fix < 0.0) {
 530:HANcoder_E407_CAN_COMM_TEST.c ****         rtb_Fix = ceil(rtb_Fix);
 531:HANcoder_E407_CAN_COMM_TEST.c ****       } else {
 532:HANcoder_E407_CAN_COMM_TEST.c ****         rtb_Fix = floor(rtb_Fix);
 533:HANcoder_E407_CAN_COMM_TEST.c ****       }
 534:HANcoder_E407_CAN_COMM_TEST.c **** 
 535:HANcoder_E407_CAN_COMM_TEST.c ****       /* End of Rounding: '<S32>/Fix1' */
 536:HANcoder_E407_CAN_COMM_TEST.c **** 
 537:HANcoder_E407_CAN_COMM_TEST.c ****       /* Sum: '<S32>/Minus1' incorporates:
 538:HANcoder_E407_CAN_COMM_TEST.c ****        *  Product: '<S32>/Multiply1'
 539:HANcoder_E407_CAN_COMM_TEST.c ****        */
 540:HANcoder_E407_CAN_COMM_TEST.c ****       rtb_Power2 -= rtb_Fix * rtb_Switch2;
 541:HANcoder_E407_CAN_COMM_TEST.c **** 
 542:HANcoder_E407_CAN_COMM_TEST.c ****       /* Math: '<S32>/Power' incorporates:
 543:HANcoder_E407_CAN_COMM_TEST.c ****        *  Constant: '<S32>/Constant1'
 544:HANcoder_E407_CAN_COMM_TEST.c ****        */
 545:HANcoder_E407_CAN_COMM_TEST.c ****       if ((2.0 < 0.0) && (rtb_Fix1 > floor(rtb_Fix1))) {
 546:HANcoder_E407_CAN_COMM_TEST.c ****         rtb_Switch2 = -pow(-2.0, rtb_Fix1);
 547:HANcoder_E407_CAN_COMM_TEST.c ****       } else {
 548:HANcoder_E407_CAN_COMM_TEST.c ****         rtb_Switch2 = pow(2.0, rtb_Fix1);
 549:HANcoder_E407_CAN_COMM_TEST.c ****       }
 550:HANcoder_E407_CAN_COMM_TEST.c **** 
 551:HANcoder_E407_CAN_COMM_TEST.c ****       /* End of Math: '<S32>/Power' */
 552:HANcoder_E407_CAN_COMM_TEST.c **** 
 553:HANcoder_E407_CAN_COMM_TEST.c ****       /* Switch: '<S32>/Switch' incorporates:
 554:HANcoder_E407_CAN_COMM_TEST.c ****        *  Gain: '<S32>/Gain1'
 555:HANcoder_E407_CAN_COMM_TEST.c ****        *  Product: '<S32>/Multiply'
 556:HANcoder_E407_CAN_COMM_TEST.c ****        *  Sum: '<S32>/Minus2'
 557:HANcoder_E407_CAN_COMM_TEST.c ****        */
 558:HANcoder_E407_CAN_COMM_TEST.c ****       if (rtB.BitShift_o.y > ((uint8_T)0U)) {
 559:HANcoder_E407_CAN_COMM_TEST.c ****         Rx_Buffer_8_CAN1 = (rtb_Power2 * rtb_Switch2 + rtb_Fix) * (-1.0);
 560:HANcoder_E407_CAN_COMM_TEST.c ****       } else {
 561:HANcoder_E407_CAN_COMM_TEST.c ****         Rx_Buffer_8_CAN1 = rtb_Power2 * rtb_Switch2 + rtb_Fix;
 562:HANcoder_E407_CAN_COMM_TEST.c ****       }
 563:HANcoder_E407_CAN_COMM_TEST.c **** 
 564:HANcoder_E407_CAN_COMM_TEST.c ****       /* End of Switch: '<S32>/Switch' */
 565:HANcoder_E407_CAN_COMM_TEST.c **** 
 566:HANcoder_E407_CAN_COMM_TEST.c ****       /* Outputs for Atomic SubSystem: '<S33>/Bit Shift' */
 567:HANcoder_E407_CAN_COMM_TEST.c ****       BitShift(Rx_coded2_CAN1, &rtB.BitShift_pe);
 568:HANcoder_E407_CAN_COMM_TEST.c **** 
 569:HANcoder_E407_CAN_COMM_TEST.c ****       /* End of Outputs for SubSystem: '<S33>/Bit Shift' */
 570:HANcoder_E407_CAN_COMM_TEST.c **** 
 571:HANcoder_E407_CAN_COMM_TEST.c ****       /* Outputs for Atomic SubSystem: '<S33>/Bit Shift1' */
 572:HANcoder_E407_CAN_COMM_TEST.c ****       BitShift1(rtB.BitShift_pe.y, &rtB.BitShift1_m);
 573:HANcoder_E407_CAN_COMM_TEST.c **** 
 574:HANcoder_E407_CAN_COMM_TEST.c ****       /* End of Outputs for SubSystem: '<S33>/Bit Shift1' */
 575:HANcoder_E407_CAN_COMM_TEST.c **** 
 576:HANcoder_E407_CAN_COMM_TEST.c ****       /* Sum: '<S33>/Minus' incorporates:
 577:HANcoder_E407_CAN_COMM_TEST.c ****        *  DataTypeConversion: '<S33>/Cast1'
 578:HANcoder_E407_CAN_COMM_TEST.c ****        */
 579:HANcoder_E407_CAN_COMM_TEST.c ****       rtb_Power2 = Rx_coded2_CAN1 - rtB.BitShift1_m.y;
 580:HANcoder_E407_CAN_COMM_TEST.c **** 
 581:HANcoder_E407_CAN_COMM_TEST.c ****       /* Math: '<S33>/Power1' incorporates:
 582:HANcoder_E407_CAN_COMM_TEST.c ****        *  Constant: '<S10>/Constant3'
 583:HANcoder_E407_CAN_COMM_TEST.c ****        *  Constant: '<S33>/Constant2'
 584:HANcoder_E407_CAN_COMM_TEST.c ****        */
 585:HANcoder_E407_CAN_COMM_TEST.c ****       if ((2.0 < 0.0) && (precision_CAN1 > rtb_Minus)) {
 586:HANcoder_E407_CAN_COMM_TEST.c ****         rtb_Switch2 = -pow(-2.0, precision_CAN1);
 587:HANcoder_E407_CAN_COMM_TEST.c ****       } else {
 588:HANcoder_E407_CAN_COMM_TEST.c ****         rtb_Switch2 = pow(2.0, precision_CAN1);
 589:HANcoder_E407_CAN_COMM_TEST.c ****       }
 590:HANcoder_E407_CAN_COMM_TEST.c **** 
 591:HANcoder_E407_CAN_COMM_TEST.c ****       /* Product: '<S33>/Divide' */
 592:HANcoder_E407_CAN_COMM_TEST.c ****       rtb_Fix = rtb_Power2 / rtb_Switch2;
 593:HANcoder_E407_CAN_COMM_TEST.c **** 
 594:HANcoder_E407_CAN_COMM_TEST.c ****       /* Rounding: '<S33>/Fix1' */
 595:HANcoder_E407_CAN_COMM_TEST.c ****       if (rtb_Fix < 0.0) {
 596:HANcoder_E407_CAN_COMM_TEST.c ****         rtb_Fix = ceil(rtb_Fix);
 597:HANcoder_E407_CAN_COMM_TEST.c ****       } else {
 598:HANcoder_E407_CAN_COMM_TEST.c ****         rtb_Fix = floor(rtb_Fix);
 599:HANcoder_E407_CAN_COMM_TEST.c ****       }
 600:HANcoder_E407_CAN_COMM_TEST.c **** 
 601:HANcoder_E407_CAN_COMM_TEST.c ****       /* End of Rounding: '<S33>/Fix1' */
 602:HANcoder_E407_CAN_COMM_TEST.c **** 
 603:HANcoder_E407_CAN_COMM_TEST.c ****       /* Sum: '<S33>/Minus1' incorporates:
 604:HANcoder_E407_CAN_COMM_TEST.c ****        *  Product: '<S33>/Multiply1'
 605:HANcoder_E407_CAN_COMM_TEST.c ****        */
 606:HANcoder_E407_CAN_COMM_TEST.c ****       rtb_Power2 -= rtb_Fix * rtb_Switch2;
 607:HANcoder_E407_CAN_COMM_TEST.c **** 
 608:HANcoder_E407_CAN_COMM_TEST.c ****       /* Math: '<S33>/Power' incorporates:
 609:HANcoder_E407_CAN_COMM_TEST.c ****        *  Constant: '<S33>/Constant1'
 610:HANcoder_E407_CAN_COMM_TEST.c ****        */
 611:HANcoder_E407_CAN_COMM_TEST.c ****       if ((2.0 < 0.0) && (rtb_Fix1 > floor(rtb_Fix1))) {
 612:HANcoder_E407_CAN_COMM_TEST.c ****         rtb_Switch2 = -pow(-2.0, rtb_Fix1);
 613:HANcoder_E407_CAN_COMM_TEST.c ****       } else {
 614:HANcoder_E407_CAN_COMM_TEST.c ****         rtb_Switch2 = pow(2.0, rtb_Fix1);
 615:HANcoder_E407_CAN_COMM_TEST.c ****       }
 616:HANcoder_E407_CAN_COMM_TEST.c **** 
 617:HANcoder_E407_CAN_COMM_TEST.c ****       /* End of Math: '<S33>/Power' */
 618:HANcoder_E407_CAN_COMM_TEST.c **** 
 619:HANcoder_E407_CAN_COMM_TEST.c ****       /* Switch: '<S33>/Switch' incorporates:
 620:HANcoder_E407_CAN_COMM_TEST.c ****        *  Gain: '<S33>/Gain1'
 621:HANcoder_E407_CAN_COMM_TEST.c ****        *  Product: '<S33>/Multiply'
 622:HANcoder_E407_CAN_COMM_TEST.c ****        *  Sum: '<S33>/Minus2'
 623:HANcoder_E407_CAN_COMM_TEST.c ****        */
 624:HANcoder_E407_CAN_COMM_TEST.c ****       if (rtB.BitShift_pe.y > ((uint8_T)0U)) {
 625:HANcoder_E407_CAN_COMM_TEST.c ****         Rx_Buffer_2_CAN1 = (rtb_Power2 * rtb_Switch2 + rtb_Fix) * (-1.0);
 626:HANcoder_E407_CAN_COMM_TEST.c ****       } else {
 627:HANcoder_E407_CAN_COMM_TEST.c ****         Rx_Buffer_2_CAN1 = rtb_Power2 * rtb_Switch2 + rtb_Fix;
 628:HANcoder_E407_CAN_COMM_TEST.c ****       }
 629:HANcoder_E407_CAN_COMM_TEST.c **** 
 630:HANcoder_E407_CAN_COMM_TEST.c ****       /* End of Switch: '<S33>/Switch' */
 631:HANcoder_E407_CAN_COMM_TEST.c **** 
 632:HANcoder_E407_CAN_COMM_TEST.c ****       /* Outputs for Atomic SubSystem: '<S34>/Bit Shift' */
 633:HANcoder_E407_CAN_COMM_TEST.c ****       BitShift(Rx_coded3_CAN1, &rtB.BitShift_c);
 634:HANcoder_E407_CAN_COMM_TEST.c **** 
 635:HANcoder_E407_CAN_COMM_TEST.c ****       /* End of Outputs for SubSystem: '<S34>/Bit Shift' */
 636:HANcoder_E407_CAN_COMM_TEST.c **** 
 637:HANcoder_E407_CAN_COMM_TEST.c ****       /* Outputs for Atomic SubSystem: '<S34>/Bit Shift1' */
 638:HANcoder_E407_CAN_COMM_TEST.c ****       BitShift1(rtB.BitShift_c.y, &rtB.BitShift1_mc);
 639:HANcoder_E407_CAN_COMM_TEST.c **** 
 640:HANcoder_E407_CAN_COMM_TEST.c ****       /* End of Outputs for SubSystem: '<S34>/Bit Shift1' */
 641:HANcoder_E407_CAN_COMM_TEST.c **** 
 642:HANcoder_E407_CAN_COMM_TEST.c ****       /* Sum: '<S34>/Minus' incorporates:
 643:HANcoder_E407_CAN_COMM_TEST.c ****        *  DataTypeConversion: '<S34>/Cast1'
 644:HANcoder_E407_CAN_COMM_TEST.c ****        */
 645:HANcoder_E407_CAN_COMM_TEST.c ****       rtb_Power2 = Rx_coded3_CAN1 - rtB.BitShift1_mc.y;
 646:HANcoder_E407_CAN_COMM_TEST.c **** 
 647:HANcoder_E407_CAN_COMM_TEST.c ****       /* Math: '<S34>/Power1' incorporates:
 648:HANcoder_E407_CAN_COMM_TEST.c ****        *  Constant: '<S10>/Constant3'
 649:HANcoder_E407_CAN_COMM_TEST.c ****        *  Constant: '<S34>/Constant2'
 650:HANcoder_E407_CAN_COMM_TEST.c ****        */
 651:HANcoder_E407_CAN_COMM_TEST.c ****       if ((2.0 < 0.0) && (precision_CAN1 > rtb_Minus)) {
 652:HANcoder_E407_CAN_COMM_TEST.c ****         rtb_Switch2 = -pow(-2.0, precision_CAN1);
 653:HANcoder_E407_CAN_COMM_TEST.c ****       } else {
 654:HANcoder_E407_CAN_COMM_TEST.c ****         rtb_Switch2 = pow(2.0, precision_CAN1);
 655:HANcoder_E407_CAN_COMM_TEST.c ****       }
 656:HANcoder_E407_CAN_COMM_TEST.c **** 
 657:HANcoder_E407_CAN_COMM_TEST.c ****       /* Product: '<S34>/Divide' */
 658:HANcoder_E407_CAN_COMM_TEST.c ****       rtb_Fix = rtb_Power2 / rtb_Switch2;
 659:HANcoder_E407_CAN_COMM_TEST.c **** 
 660:HANcoder_E407_CAN_COMM_TEST.c ****       /* Rounding: '<S34>/Fix1' */
 661:HANcoder_E407_CAN_COMM_TEST.c ****       if (rtb_Fix < 0.0) {
 662:HANcoder_E407_CAN_COMM_TEST.c ****         rtb_Fix = ceil(rtb_Fix);
 663:HANcoder_E407_CAN_COMM_TEST.c ****       } else {
 664:HANcoder_E407_CAN_COMM_TEST.c ****         rtb_Fix = floor(rtb_Fix);
 665:HANcoder_E407_CAN_COMM_TEST.c ****       }
 666:HANcoder_E407_CAN_COMM_TEST.c **** 
 667:HANcoder_E407_CAN_COMM_TEST.c ****       /* End of Rounding: '<S34>/Fix1' */
 668:HANcoder_E407_CAN_COMM_TEST.c **** 
 669:HANcoder_E407_CAN_COMM_TEST.c ****       /* Sum: '<S34>/Minus1' incorporates:
 670:HANcoder_E407_CAN_COMM_TEST.c ****        *  Product: '<S34>/Multiply1'
 671:HANcoder_E407_CAN_COMM_TEST.c ****        */
 672:HANcoder_E407_CAN_COMM_TEST.c ****       rtb_Power2 -= rtb_Fix * rtb_Switch2;
 673:HANcoder_E407_CAN_COMM_TEST.c **** 
 674:HANcoder_E407_CAN_COMM_TEST.c ****       /* Math: '<S34>/Power' incorporates:
 675:HANcoder_E407_CAN_COMM_TEST.c ****        *  Constant: '<S34>/Constant1'
 676:HANcoder_E407_CAN_COMM_TEST.c ****        */
 677:HANcoder_E407_CAN_COMM_TEST.c ****       if ((2.0 < 0.0) && (rtb_Fix1 > floor(rtb_Fix1))) {
 678:HANcoder_E407_CAN_COMM_TEST.c ****         rtb_Switch2 = -pow(-2.0, rtb_Fix1);
 679:HANcoder_E407_CAN_COMM_TEST.c ****       } else {
 680:HANcoder_E407_CAN_COMM_TEST.c ****         rtb_Switch2 = pow(2.0, rtb_Fix1);
 681:HANcoder_E407_CAN_COMM_TEST.c ****       }
 682:HANcoder_E407_CAN_COMM_TEST.c **** 
 683:HANcoder_E407_CAN_COMM_TEST.c ****       /* End of Math: '<S34>/Power' */
 684:HANcoder_E407_CAN_COMM_TEST.c **** 
 685:HANcoder_E407_CAN_COMM_TEST.c ****       /* Switch: '<S34>/Switch' incorporates:
 686:HANcoder_E407_CAN_COMM_TEST.c ****        *  Gain: '<S34>/Gain1'
 687:HANcoder_E407_CAN_COMM_TEST.c ****        *  Product: '<S34>/Multiply'
 688:HANcoder_E407_CAN_COMM_TEST.c ****        *  Sum: '<S34>/Minus2'
 689:HANcoder_E407_CAN_COMM_TEST.c ****        */
 690:HANcoder_E407_CAN_COMM_TEST.c ****       if (rtB.BitShift_c.y > ((uint8_T)0U)) {
 691:HANcoder_E407_CAN_COMM_TEST.c ****         Rx_Buffer_3_CAN1 = (rtb_Power2 * rtb_Switch2 + rtb_Fix) * (-1.0);
 692:HANcoder_E407_CAN_COMM_TEST.c ****       } else {
 693:HANcoder_E407_CAN_COMM_TEST.c ****         Rx_Buffer_3_CAN1 = rtb_Power2 * rtb_Switch2 + rtb_Fix;
 694:HANcoder_E407_CAN_COMM_TEST.c ****       }
 695:HANcoder_E407_CAN_COMM_TEST.c **** 
 696:HANcoder_E407_CAN_COMM_TEST.c ****       /* End of Switch: '<S34>/Switch' */
 697:HANcoder_E407_CAN_COMM_TEST.c **** 
 698:HANcoder_E407_CAN_COMM_TEST.c ****       /* Outputs for Atomic SubSystem: '<S35>/Bit Shift' */
 699:HANcoder_E407_CAN_COMM_TEST.c ****       BitShift(Rx_coded4_CAN1, &rtB.BitShift_of);
 700:HANcoder_E407_CAN_COMM_TEST.c **** 
 701:HANcoder_E407_CAN_COMM_TEST.c ****       /* End of Outputs for SubSystem: '<S35>/Bit Shift' */
 702:HANcoder_E407_CAN_COMM_TEST.c **** 
 703:HANcoder_E407_CAN_COMM_TEST.c ****       /* Outputs for Atomic SubSystem: '<S35>/Bit Shift1' */
 704:HANcoder_E407_CAN_COMM_TEST.c ****       BitShift1(rtB.BitShift_of.y, &rtB.BitShift1_bk);
 705:HANcoder_E407_CAN_COMM_TEST.c **** 
 706:HANcoder_E407_CAN_COMM_TEST.c ****       /* End of Outputs for SubSystem: '<S35>/Bit Shift1' */
 707:HANcoder_E407_CAN_COMM_TEST.c **** 
 708:HANcoder_E407_CAN_COMM_TEST.c ****       /* Sum: '<S35>/Minus' incorporates:
 709:HANcoder_E407_CAN_COMM_TEST.c ****        *  DataTypeConversion: '<S35>/Cast1'
 710:HANcoder_E407_CAN_COMM_TEST.c ****        */
 711:HANcoder_E407_CAN_COMM_TEST.c ****       rtb_Power2 = Rx_coded4_CAN1 - rtB.BitShift1_bk.y;
 712:HANcoder_E407_CAN_COMM_TEST.c **** 
 713:HANcoder_E407_CAN_COMM_TEST.c ****       /* Math: '<S35>/Power1' incorporates:
 714:HANcoder_E407_CAN_COMM_TEST.c ****        *  Constant: '<S10>/Constant3'
 715:HANcoder_E407_CAN_COMM_TEST.c ****        *  Constant: '<S35>/Constant2'
 716:HANcoder_E407_CAN_COMM_TEST.c ****        */
 717:HANcoder_E407_CAN_COMM_TEST.c ****       if ((2.0 < 0.0) && (precision_CAN1 > rtb_Minus)) {
 718:HANcoder_E407_CAN_COMM_TEST.c ****         rtb_Switch2 = -pow(-2.0, precision_CAN1);
 719:HANcoder_E407_CAN_COMM_TEST.c ****       } else {
 720:HANcoder_E407_CAN_COMM_TEST.c ****         rtb_Switch2 = pow(2.0, precision_CAN1);
 721:HANcoder_E407_CAN_COMM_TEST.c ****       }
 722:HANcoder_E407_CAN_COMM_TEST.c **** 
 723:HANcoder_E407_CAN_COMM_TEST.c ****       /* Product: '<S35>/Divide' */
 724:HANcoder_E407_CAN_COMM_TEST.c ****       rtb_Fix = rtb_Power2 / rtb_Switch2;
 725:HANcoder_E407_CAN_COMM_TEST.c **** 
 726:HANcoder_E407_CAN_COMM_TEST.c ****       /* Rounding: '<S35>/Fix1' */
 727:HANcoder_E407_CAN_COMM_TEST.c ****       if (rtb_Fix < 0.0) {
 728:HANcoder_E407_CAN_COMM_TEST.c ****         rtb_Fix = ceil(rtb_Fix);
 729:HANcoder_E407_CAN_COMM_TEST.c ****       } else {
 730:HANcoder_E407_CAN_COMM_TEST.c ****         rtb_Fix = floor(rtb_Fix);
 731:HANcoder_E407_CAN_COMM_TEST.c ****       }
 732:HANcoder_E407_CAN_COMM_TEST.c **** 
 733:HANcoder_E407_CAN_COMM_TEST.c ****       /* End of Rounding: '<S35>/Fix1' */
 734:HANcoder_E407_CAN_COMM_TEST.c **** 
 735:HANcoder_E407_CAN_COMM_TEST.c ****       /* Sum: '<S35>/Minus1' incorporates:
 736:HANcoder_E407_CAN_COMM_TEST.c ****        *  Product: '<S35>/Multiply1'
 737:HANcoder_E407_CAN_COMM_TEST.c ****        */
 738:HANcoder_E407_CAN_COMM_TEST.c ****       rtb_Power2 -= rtb_Fix * rtb_Switch2;
 739:HANcoder_E407_CAN_COMM_TEST.c **** 
 740:HANcoder_E407_CAN_COMM_TEST.c ****       /* Math: '<S35>/Power' incorporates:
 741:HANcoder_E407_CAN_COMM_TEST.c ****        *  Constant: '<S35>/Constant1'
 742:HANcoder_E407_CAN_COMM_TEST.c ****        */
 743:HANcoder_E407_CAN_COMM_TEST.c ****       if ((2.0 < 0.0) && (rtb_Fix1 > floor(rtb_Fix1))) {
 744:HANcoder_E407_CAN_COMM_TEST.c ****         rtb_Switch2 = -pow(-2.0, rtb_Fix1);
 745:HANcoder_E407_CAN_COMM_TEST.c ****       } else {
 746:HANcoder_E407_CAN_COMM_TEST.c ****         rtb_Switch2 = pow(2.0, rtb_Fix1);
 747:HANcoder_E407_CAN_COMM_TEST.c ****       }
 748:HANcoder_E407_CAN_COMM_TEST.c **** 
 749:HANcoder_E407_CAN_COMM_TEST.c ****       /* End of Math: '<S35>/Power' */
 750:HANcoder_E407_CAN_COMM_TEST.c **** 
 751:HANcoder_E407_CAN_COMM_TEST.c ****       /* Switch: '<S35>/Switch' incorporates:
 752:HANcoder_E407_CAN_COMM_TEST.c ****        *  Gain: '<S35>/Gain1'
 753:HANcoder_E407_CAN_COMM_TEST.c ****        *  Product: '<S35>/Multiply'
 754:HANcoder_E407_CAN_COMM_TEST.c ****        *  Sum: '<S35>/Minus2'
 755:HANcoder_E407_CAN_COMM_TEST.c ****        */
 756:HANcoder_E407_CAN_COMM_TEST.c ****       if (rtB.BitShift_of.y > ((uint8_T)0U)) {
 757:HANcoder_E407_CAN_COMM_TEST.c ****         Rx_Buffer_4_CAN1 = (rtb_Power2 * rtb_Switch2 + rtb_Fix) * (-1.0);
 758:HANcoder_E407_CAN_COMM_TEST.c ****       } else {
 759:HANcoder_E407_CAN_COMM_TEST.c ****         Rx_Buffer_4_CAN1 = rtb_Power2 * rtb_Switch2 + rtb_Fix;
 760:HANcoder_E407_CAN_COMM_TEST.c ****       }
 761:HANcoder_E407_CAN_COMM_TEST.c **** 
 762:HANcoder_E407_CAN_COMM_TEST.c ****       /* End of Switch: '<S35>/Switch' */
 763:HANcoder_E407_CAN_COMM_TEST.c **** 
 764:HANcoder_E407_CAN_COMM_TEST.c ****       /* Outputs for Atomic SubSystem: '<S36>/Bit Shift' */
 765:HANcoder_E407_CAN_COMM_TEST.c ****       BitShift(Rx_coded5_CAN1, &rtB.BitShift_f);
 766:HANcoder_E407_CAN_COMM_TEST.c **** 
 767:HANcoder_E407_CAN_COMM_TEST.c ****       /* End of Outputs for SubSystem: '<S36>/Bit Shift' */
 768:HANcoder_E407_CAN_COMM_TEST.c **** 
 769:HANcoder_E407_CAN_COMM_TEST.c ****       /* Outputs for Atomic SubSystem: '<S36>/Bit Shift1' */
 770:HANcoder_E407_CAN_COMM_TEST.c ****       BitShift1(rtB.BitShift_f.y, &rtB.BitShift1_jz);
 771:HANcoder_E407_CAN_COMM_TEST.c **** 
 772:HANcoder_E407_CAN_COMM_TEST.c ****       /* End of Outputs for SubSystem: '<S36>/Bit Shift1' */
 773:HANcoder_E407_CAN_COMM_TEST.c **** 
 774:HANcoder_E407_CAN_COMM_TEST.c ****       /* Sum: '<S36>/Minus' incorporates:
 775:HANcoder_E407_CAN_COMM_TEST.c ****        *  DataTypeConversion: '<S36>/Cast1'
 776:HANcoder_E407_CAN_COMM_TEST.c ****        */
 777:HANcoder_E407_CAN_COMM_TEST.c ****       rtb_Power2 = Rx_coded5_CAN1 - rtB.BitShift1_jz.y;
 778:HANcoder_E407_CAN_COMM_TEST.c **** 
 779:HANcoder_E407_CAN_COMM_TEST.c ****       /* Math: '<S36>/Power1' incorporates:
 780:HANcoder_E407_CAN_COMM_TEST.c ****        *  Constant: '<S10>/Constant3'
 781:HANcoder_E407_CAN_COMM_TEST.c ****        *  Constant: '<S36>/Constant2'
 782:HANcoder_E407_CAN_COMM_TEST.c ****        */
 783:HANcoder_E407_CAN_COMM_TEST.c ****       if ((2.0 < 0.0) && (precision_CAN1 > rtb_Minus)) {
 784:HANcoder_E407_CAN_COMM_TEST.c ****         rtb_Switch2 = -pow(-2.0, precision_CAN1);
 785:HANcoder_E407_CAN_COMM_TEST.c ****       } else {
 786:HANcoder_E407_CAN_COMM_TEST.c ****         rtb_Switch2 = pow(2.0, precision_CAN1);
 787:HANcoder_E407_CAN_COMM_TEST.c ****       }
 788:HANcoder_E407_CAN_COMM_TEST.c **** 
 789:HANcoder_E407_CAN_COMM_TEST.c ****       /* Product: '<S36>/Divide' */
 790:HANcoder_E407_CAN_COMM_TEST.c ****       rtb_Fix = rtb_Power2 / rtb_Switch2;
 791:HANcoder_E407_CAN_COMM_TEST.c **** 
 792:HANcoder_E407_CAN_COMM_TEST.c ****       /* Rounding: '<S36>/Fix1' */
 793:HANcoder_E407_CAN_COMM_TEST.c ****       if (rtb_Fix < 0.0) {
 794:HANcoder_E407_CAN_COMM_TEST.c ****         rtb_Fix = ceil(rtb_Fix);
 795:HANcoder_E407_CAN_COMM_TEST.c ****       } else {
 796:HANcoder_E407_CAN_COMM_TEST.c ****         rtb_Fix = floor(rtb_Fix);
 797:HANcoder_E407_CAN_COMM_TEST.c ****       }
 798:HANcoder_E407_CAN_COMM_TEST.c **** 
 799:HANcoder_E407_CAN_COMM_TEST.c ****       /* End of Rounding: '<S36>/Fix1' */
 800:HANcoder_E407_CAN_COMM_TEST.c **** 
 801:HANcoder_E407_CAN_COMM_TEST.c ****       /* Sum: '<S36>/Minus1' incorporates:
 802:HANcoder_E407_CAN_COMM_TEST.c ****        *  Product: '<S36>/Multiply1'
 803:HANcoder_E407_CAN_COMM_TEST.c ****        */
 804:HANcoder_E407_CAN_COMM_TEST.c ****       rtb_Power2 -= rtb_Fix * rtb_Switch2;
 805:HANcoder_E407_CAN_COMM_TEST.c **** 
 806:HANcoder_E407_CAN_COMM_TEST.c ****       /* Math: '<S36>/Power' incorporates:
 807:HANcoder_E407_CAN_COMM_TEST.c ****        *  Constant: '<S36>/Constant1'
 808:HANcoder_E407_CAN_COMM_TEST.c ****        */
 809:HANcoder_E407_CAN_COMM_TEST.c ****       if ((2.0 < 0.0) && (rtb_Fix1 > floor(rtb_Fix1))) {
 810:HANcoder_E407_CAN_COMM_TEST.c ****         rtb_Switch2 = -pow(-2.0, rtb_Fix1);
 811:HANcoder_E407_CAN_COMM_TEST.c ****       } else {
 812:HANcoder_E407_CAN_COMM_TEST.c ****         rtb_Switch2 = pow(2.0, rtb_Fix1);
 813:HANcoder_E407_CAN_COMM_TEST.c ****       }
 814:HANcoder_E407_CAN_COMM_TEST.c **** 
 815:HANcoder_E407_CAN_COMM_TEST.c ****       /* End of Math: '<S36>/Power' */
 816:HANcoder_E407_CAN_COMM_TEST.c **** 
 817:HANcoder_E407_CAN_COMM_TEST.c ****       /* Switch: '<S36>/Switch' incorporates:
 818:HANcoder_E407_CAN_COMM_TEST.c ****        *  Gain: '<S36>/Gain1'
 819:HANcoder_E407_CAN_COMM_TEST.c ****        *  Product: '<S36>/Multiply'
 820:HANcoder_E407_CAN_COMM_TEST.c ****        *  Sum: '<S36>/Minus2'
 821:HANcoder_E407_CAN_COMM_TEST.c ****        */
 822:HANcoder_E407_CAN_COMM_TEST.c ****       if (rtB.BitShift_f.y > ((uint8_T)0U)) {
 823:HANcoder_E407_CAN_COMM_TEST.c ****         Rx_Buffer_5_CAN1 = (rtb_Power2 * rtb_Switch2 + rtb_Fix) * (-1.0);
 824:HANcoder_E407_CAN_COMM_TEST.c ****       } else {
 825:HANcoder_E407_CAN_COMM_TEST.c ****         Rx_Buffer_5_CAN1 = rtb_Power2 * rtb_Switch2 + rtb_Fix;
 826:HANcoder_E407_CAN_COMM_TEST.c ****       }
 827:HANcoder_E407_CAN_COMM_TEST.c **** 
 828:HANcoder_E407_CAN_COMM_TEST.c ****       /* End of Switch: '<S36>/Switch' */
 829:HANcoder_E407_CAN_COMM_TEST.c **** 
 830:HANcoder_E407_CAN_COMM_TEST.c ****       /* Outputs for Atomic SubSystem: '<S37>/Bit Shift' */
 831:HANcoder_E407_CAN_COMM_TEST.c ****       BitShift(Rx_coded6_CAN1, &rtB.BitShift_n);
 832:HANcoder_E407_CAN_COMM_TEST.c **** 
 833:HANcoder_E407_CAN_COMM_TEST.c ****       /* End of Outputs for SubSystem: '<S37>/Bit Shift' */
 834:HANcoder_E407_CAN_COMM_TEST.c **** 
 835:HANcoder_E407_CAN_COMM_TEST.c ****       /* Outputs for Atomic SubSystem: '<S37>/Bit Shift1' */
 836:HANcoder_E407_CAN_COMM_TEST.c ****       BitShift1(rtB.BitShift_n.y, &rtB.BitShift1_fl);
 837:HANcoder_E407_CAN_COMM_TEST.c **** 
 838:HANcoder_E407_CAN_COMM_TEST.c ****       /* End of Outputs for SubSystem: '<S37>/Bit Shift1' */
 839:HANcoder_E407_CAN_COMM_TEST.c **** 
 840:HANcoder_E407_CAN_COMM_TEST.c ****       /* Sum: '<S37>/Minus' incorporates:
 841:HANcoder_E407_CAN_COMM_TEST.c ****        *  DataTypeConversion: '<S37>/Cast1'
 842:HANcoder_E407_CAN_COMM_TEST.c ****        */
 843:HANcoder_E407_CAN_COMM_TEST.c ****       rtb_Power2 = Rx_coded6_CAN1 - rtB.BitShift1_fl.y;
 844:HANcoder_E407_CAN_COMM_TEST.c **** 
 845:HANcoder_E407_CAN_COMM_TEST.c ****       /* Math: '<S37>/Power1' incorporates:
 846:HANcoder_E407_CAN_COMM_TEST.c ****        *  Constant: '<S10>/Constant3'
 847:HANcoder_E407_CAN_COMM_TEST.c ****        *  Constant: '<S37>/Constant2'
 848:HANcoder_E407_CAN_COMM_TEST.c ****        */
 849:HANcoder_E407_CAN_COMM_TEST.c ****       if ((2.0 < 0.0) && (precision_CAN1 > rtb_Minus)) {
 850:HANcoder_E407_CAN_COMM_TEST.c ****         rtb_Switch2 = -pow(-2.0, precision_CAN1);
 851:HANcoder_E407_CAN_COMM_TEST.c ****       } else {
 852:HANcoder_E407_CAN_COMM_TEST.c ****         rtb_Switch2 = pow(2.0, precision_CAN1);
 853:HANcoder_E407_CAN_COMM_TEST.c ****       }
 854:HANcoder_E407_CAN_COMM_TEST.c **** 
 855:HANcoder_E407_CAN_COMM_TEST.c ****       /* Product: '<S37>/Divide' */
 856:HANcoder_E407_CAN_COMM_TEST.c ****       rtb_Fix = rtb_Power2 / rtb_Switch2;
 857:HANcoder_E407_CAN_COMM_TEST.c **** 
 858:HANcoder_E407_CAN_COMM_TEST.c ****       /* Rounding: '<S37>/Fix1' */
 859:HANcoder_E407_CAN_COMM_TEST.c ****       if (rtb_Fix < 0.0) {
 860:HANcoder_E407_CAN_COMM_TEST.c ****         rtb_Fix = ceil(rtb_Fix);
 861:HANcoder_E407_CAN_COMM_TEST.c ****       } else {
 862:HANcoder_E407_CAN_COMM_TEST.c ****         rtb_Fix = floor(rtb_Fix);
 863:HANcoder_E407_CAN_COMM_TEST.c ****       }
 864:HANcoder_E407_CAN_COMM_TEST.c **** 
 865:HANcoder_E407_CAN_COMM_TEST.c ****       /* End of Rounding: '<S37>/Fix1' */
 866:HANcoder_E407_CAN_COMM_TEST.c **** 
 867:HANcoder_E407_CAN_COMM_TEST.c ****       /* Sum: '<S37>/Minus1' incorporates:
 868:HANcoder_E407_CAN_COMM_TEST.c ****        *  Product: '<S37>/Multiply1'
 869:HANcoder_E407_CAN_COMM_TEST.c ****        */
 870:HANcoder_E407_CAN_COMM_TEST.c ****       rtb_Power2 -= rtb_Fix * rtb_Switch2;
 871:HANcoder_E407_CAN_COMM_TEST.c **** 
 872:HANcoder_E407_CAN_COMM_TEST.c ****       /* Math: '<S37>/Power' incorporates:
 873:HANcoder_E407_CAN_COMM_TEST.c ****        *  Constant: '<S37>/Constant1'
 874:HANcoder_E407_CAN_COMM_TEST.c ****        */
 875:HANcoder_E407_CAN_COMM_TEST.c ****       if ((2.0 < 0.0) && (rtb_Fix1 > floor(rtb_Fix1))) {
 876:HANcoder_E407_CAN_COMM_TEST.c ****         rtb_Switch2 = -pow(-2.0, rtb_Fix1);
 877:HANcoder_E407_CAN_COMM_TEST.c ****       } else {
 878:HANcoder_E407_CAN_COMM_TEST.c ****         rtb_Switch2 = pow(2.0, rtb_Fix1);
 879:HANcoder_E407_CAN_COMM_TEST.c ****       }
 880:HANcoder_E407_CAN_COMM_TEST.c **** 
 881:HANcoder_E407_CAN_COMM_TEST.c ****       /* End of Math: '<S37>/Power' */
 882:HANcoder_E407_CAN_COMM_TEST.c **** 
 883:HANcoder_E407_CAN_COMM_TEST.c ****       /* Switch: '<S37>/Switch' incorporates:
 884:HANcoder_E407_CAN_COMM_TEST.c ****        *  Gain: '<S37>/Gain1'
 885:HANcoder_E407_CAN_COMM_TEST.c ****        *  Product: '<S37>/Multiply'
 886:HANcoder_E407_CAN_COMM_TEST.c ****        *  Sum: '<S37>/Minus2'
 887:HANcoder_E407_CAN_COMM_TEST.c ****        */
 888:HANcoder_E407_CAN_COMM_TEST.c ****       if (rtB.BitShift_n.y > ((uint8_T)0U)) {
 889:HANcoder_E407_CAN_COMM_TEST.c ****         Rx_Buffer_6_CAN1 = (rtb_Power2 * rtb_Switch2 + rtb_Fix) * (-1.0);
 890:HANcoder_E407_CAN_COMM_TEST.c ****       } else {
 891:HANcoder_E407_CAN_COMM_TEST.c ****         Rx_Buffer_6_CAN1 = rtb_Power2 * rtb_Switch2 + rtb_Fix;
 892:HANcoder_E407_CAN_COMM_TEST.c ****       }
 893:HANcoder_E407_CAN_COMM_TEST.c **** 
 894:HANcoder_E407_CAN_COMM_TEST.c ****       /* End of Switch: '<S37>/Switch' */
 895:HANcoder_E407_CAN_COMM_TEST.c **** 
 896:HANcoder_E407_CAN_COMM_TEST.c ****       /* Outputs for Atomic SubSystem: '<S38>/Bit Shift' */
 897:HANcoder_E407_CAN_COMM_TEST.c ****       BitShift(Rx_coded7_CAN1, &rtB.BitShift_g);
 898:HANcoder_E407_CAN_COMM_TEST.c **** 
 899:HANcoder_E407_CAN_COMM_TEST.c ****       /* End of Outputs for SubSystem: '<S38>/Bit Shift' */
 900:HANcoder_E407_CAN_COMM_TEST.c **** 
 901:HANcoder_E407_CAN_COMM_TEST.c ****       /* Outputs for Atomic SubSystem: '<S38>/Bit Shift1' */
 902:HANcoder_E407_CAN_COMM_TEST.c ****       BitShift1(rtB.BitShift_g.y, &rtB.BitShift1_c);
 903:HANcoder_E407_CAN_COMM_TEST.c **** 
 904:HANcoder_E407_CAN_COMM_TEST.c ****       /* End of Outputs for SubSystem: '<S38>/Bit Shift1' */
 905:HANcoder_E407_CAN_COMM_TEST.c **** 
 906:HANcoder_E407_CAN_COMM_TEST.c ****       /* Sum: '<S38>/Minus' incorporates:
 907:HANcoder_E407_CAN_COMM_TEST.c ****        *  DataTypeConversion: '<S38>/Cast1'
 908:HANcoder_E407_CAN_COMM_TEST.c ****        */
 909:HANcoder_E407_CAN_COMM_TEST.c ****       rtb_Power2 = Rx_coded7_CAN1 - rtB.BitShift1_c.y;
 910:HANcoder_E407_CAN_COMM_TEST.c **** 
 911:HANcoder_E407_CAN_COMM_TEST.c ****       /* Math: '<S38>/Power1' incorporates:
 912:HANcoder_E407_CAN_COMM_TEST.c ****        *  Constant: '<S10>/Constant3'
 913:HANcoder_E407_CAN_COMM_TEST.c ****        *  Constant: '<S38>/Constant2'
 914:HANcoder_E407_CAN_COMM_TEST.c ****        */
 915:HANcoder_E407_CAN_COMM_TEST.c ****       if ((2.0 < 0.0) && (precision_CAN1 > rtb_Minus)) {
 916:HANcoder_E407_CAN_COMM_TEST.c ****         rtb_Switch2 = -pow(-2.0, precision_CAN1);
 917:HANcoder_E407_CAN_COMM_TEST.c ****       } else {
 918:HANcoder_E407_CAN_COMM_TEST.c ****         rtb_Switch2 = pow(2.0, precision_CAN1);
 919:HANcoder_E407_CAN_COMM_TEST.c ****       }
 920:HANcoder_E407_CAN_COMM_TEST.c **** 
 921:HANcoder_E407_CAN_COMM_TEST.c ****       /* Product: '<S38>/Divide' */
 922:HANcoder_E407_CAN_COMM_TEST.c ****       rtb_Fix = rtb_Power2 / rtb_Switch2;
 923:HANcoder_E407_CAN_COMM_TEST.c **** 
 924:HANcoder_E407_CAN_COMM_TEST.c ****       /* Rounding: '<S38>/Fix1' */
 925:HANcoder_E407_CAN_COMM_TEST.c ****       if (rtb_Fix < 0.0) {
 926:HANcoder_E407_CAN_COMM_TEST.c ****         rtb_Fix = ceil(rtb_Fix);
 927:HANcoder_E407_CAN_COMM_TEST.c ****       } else {
 928:HANcoder_E407_CAN_COMM_TEST.c ****         rtb_Fix = floor(rtb_Fix);
 929:HANcoder_E407_CAN_COMM_TEST.c ****       }
 930:HANcoder_E407_CAN_COMM_TEST.c **** 
 931:HANcoder_E407_CAN_COMM_TEST.c ****       /* End of Rounding: '<S38>/Fix1' */
 932:HANcoder_E407_CAN_COMM_TEST.c **** 
 933:HANcoder_E407_CAN_COMM_TEST.c ****       /* Sum: '<S38>/Minus1' incorporates:
 934:HANcoder_E407_CAN_COMM_TEST.c ****        *  Product: '<S38>/Multiply1'
 935:HANcoder_E407_CAN_COMM_TEST.c ****        */
 936:HANcoder_E407_CAN_COMM_TEST.c ****       rtb_Power2 -= rtb_Fix * rtb_Switch2;
 937:HANcoder_E407_CAN_COMM_TEST.c **** 
 938:HANcoder_E407_CAN_COMM_TEST.c ****       /* Math: '<S38>/Power' incorporates:
 939:HANcoder_E407_CAN_COMM_TEST.c ****        *  Constant: '<S38>/Constant1'
 940:HANcoder_E407_CAN_COMM_TEST.c ****        */
 941:HANcoder_E407_CAN_COMM_TEST.c ****       if ((2.0 < 0.0) && (rtb_Fix1 > floor(rtb_Fix1))) {
 942:HANcoder_E407_CAN_COMM_TEST.c ****         rtb_Switch2 = -pow(-2.0, rtb_Fix1);
 943:HANcoder_E407_CAN_COMM_TEST.c ****       } else {
 944:HANcoder_E407_CAN_COMM_TEST.c ****         rtb_Switch2 = pow(2.0, rtb_Fix1);
 945:HANcoder_E407_CAN_COMM_TEST.c ****       }
 946:HANcoder_E407_CAN_COMM_TEST.c **** 
 947:HANcoder_E407_CAN_COMM_TEST.c ****       /* End of Math: '<S38>/Power' */
 948:HANcoder_E407_CAN_COMM_TEST.c **** 
 949:HANcoder_E407_CAN_COMM_TEST.c ****       /* Switch: '<S38>/Switch' incorporates:
 950:HANcoder_E407_CAN_COMM_TEST.c ****        *  Gain: '<S38>/Gain1'
 951:HANcoder_E407_CAN_COMM_TEST.c ****        *  Product: '<S38>/Multiply'
 952:HANcoder_E407_CAN_COMM_TEST.c ****        *  Sum: '<S38>/Minus2'
 953:HANcoder_E407_CAN_COMM_TEST.c ****        */
 954:HANcoder_E407_CAN_COMM_TEST.c ****       if (rtB.BitShift_g.y > ((uint8_T)0U)) {
 955:HANcoder_E407_CAN_COMM_TEST.c ****         Rx_Buffer_7_CAN1 = (rtb_Power2 * rtb_Switch2 + rtb_Fix) * (-1.0);
 956:HANcoder_E407_CAN_COMM_TEST.c ****       } else {
 957:HANcoder_E407_CAN_COMM_TEST.c ****         Rx_Buffer_7_CAN1 = rtb_Power2 * rtb_Switch2 + rtb_Fix;
 958:HANcoder_E407_CAN_COMM_TEST.c ****       }
 959:HANcoder_E407_CAN_COMM_TEST.c **** 
 960:HANcoder_E407_CAN_COMM_TEST.c ****       /* End of Switch: '<S38>/Switch' */
 961:HANcoder_E407_CAN_COMM_TEST.c **** 
 962:HANcoder_E407_CAN_COMM_TEST.c ****       /* M-S-Function: '<S24>/S-Function' */
 963:HANcoder_E407_CAN_COMM_TEST.c **** 
 964:HANcoder_E407_CAN_COMM_TEST.c ****       /* read the message data and store the new parameter */
 965:HANcoder_E407_CAN_COMM_TEST.c ****       new_CAN2 = CanIoGetMessage(1, constant_ID_RXCAN2, NULL,
 966:HANcoder_E407_CAN_COMM_TEST.c ****         &canRxData_1_constant_ID_RXCAN2.uint8_T_info[0], NULL);
 967:HANcoder_E407_CAN_COMM_TEST.c **** 
 968:HANcoder_E407_CAN_COMM_TEST.c ****       /* process the message data */
 969:HANcoder_E407_CAN_COMM_TEST.c ****       if (new_CAN2 > 0) {
 970:HANcoder_E407_CAN_COMM_TEST.c ****         /* read the data */
 971:HANcoder_E407_CAN_COMM_TEST.c ****         rtb_SFunction_o2_e = canRxData_1_constant_ID_RXCAN2.uint8_T_info[0];
 972:HANcoder_E407_CAN_COMM_TEST.c ****         rtb_SFunction_o3_a = canRxData_1_constant_ID_RXCAN2.uint8_T_info[1];
 973:HANcoder_E407_CAN_COMM_TEST.c ****         rtb_SFunction_o4_k = canRxData_1_constant_ID_RXCAN2.uint8_T_info[2];
 974:HANcoder_E407_CAN_COMM_TEST.c ****         rtb_SFunction_o5_i = canRxData_1_constant_ID_RXCAN2.uint8_T_info[3];
 975:HANcoder_E407_CAN_COMM_TEST.c ****         rtb_SFunction_o6_p = canRxData_1_constant_ID_RXCAN2.uint8_T_info[4];
 976:HANcoder_E407_CAN_COMM_TEST.c ****         rtb_SFunction_o7_l = canRxData_1_constant_ID_RXCAN2.uint8_T_info[5];
 977:HANcoder_E407_CAN_COMM_TEST.c ****         rtb_SFunction_o8_j = canRxData_1_constant_ID_RXCAN2.uint8_T_info[6];
 978:HANcoder_E407_CAN_COMM_TEST.c ****         rtb_SFunction_o9_d = canRxData_1_constant_ID_RXCAN2.uint8_T_info[7];
 979:HANcoder_E407_CAN_COMM_TEST.c ****       }
 980:HANcoder_E407_CAN_COMM_TEST.c **** 
 981:HANcoder_E407_CAN_COMM_TEST.c ****       /* Outputs for Enabled SubSystem: '<S24>/Enabled Subsystem' incorporates:
 982:HANcoder_E407_CAN_COMM_TEST.c ****        *  EnablePort: '<S42>/Enable'
 983:HANcoder_E407_CAN_COMM_TEST.c ****        */
 984:HANcoder_E407_CAN_COMM_TEST.c ****       if (new_CAN2 > 0) {
 985:HANcoder_E407_CAN_COMM_TEST.c ****         Rx_coded1_CAN2 = rtb_SFunction_o2_e;
 986:HANcoder_E407_CAN_COMM_TEST.c ****         Rx_coded2_CAN2 = rtb_SFunction_o3_a;
 987:HANcoder_E407_CAN_COMM_TEST.c ****         Rx_coded3_CAN2 = rtb_SFunction_o4_k;
 988:HANcoder_E407_CAN_COMM_TEST.c ****         Rx_coded4_CAN2 = rtb_SFunction_o5_i;
 989:HANcoder_E407_CAN_COMM_TEST.c ****         Rx_coded5_CAN2 = rtb_SFunction_o6_p;
 990:HANcoder_E407_CAN_COMM_TEST.c ****         Rx_coded6_CAN2 = rtb_SFunction_o7_l;
 991:HANcoder_E407_CAN_COMM_TEST.c ****         Rx_coded7_CAN2 = rtb_SFunction_o8_j;
 992:HANcoder_E407_CAN_COMM_TEST.c ****         Rx_coded8_CAN2 = rtb_SFunction_o9_d;
 993:HANcoder_E407_CAN_COMM_TEST.c ****       }
 994:HANcoder_E407_CAN_COMM_TEST.c **** 
 995:HANcoder_E407_CAN_COMM_TEST.c ****       /* End of Outputs for SubSystem: '<S24>/Enabled Subsystem' */
 996:HANcoder_E407_CAN_COMM_TEST.c **** 
 997:HANcoder_E407_CAN_COMM_TEST.c ****       /* Outputs for Atomic SubSystem: '<S26>/Bit Shift' */
 998:HANcoder_E407_CAN_COMM_TEST.c ****       BitShift(Rx_coded5_CAN2, &rtB.BitShift_b);
 999:HANcoder_E407_CAN_COMM_TEST.c **** 
1000:HANcoder_E407_CAN_COMM_TEST.c ****       /* End of Outputs for SubSystem: '<S26>/Bit Shift' */
1001:HANcoder_E407_CAN_COMM_TEST.c **** 
1002:HANcoder_E407_CAN_COMM_TEST.c ****       /* Outputs for Atomic SubSystem: '<S26>/Bit Shift1' */
1003:HANcoder_E407_CAN_COMM_TEST.c ****       BitShift1(rtB.BitShift_b.y, &rtB.BitShift1_eg);
1004:HANcoder_E407_CAN_COMM_TEST.c **** 
1005:HANcoder_E407_CAN_COMM_TEST.c ****       /* End of Outputs for SubSystem: '<S26>/Bit Shift1' */
1006:HANcoder_E407_CAN_COMM_TEST.c **** 
1007:HANcoder_E407_CAN_COMM_TEST.c ****       /* Sum: '<S26>/Minus' incorporates:
1008:HANcoder_E407_CAN_COMM_TEST.c ****        *  DataTypeConversion: '<S26>/Cast1'
1009:HANcoder_E407_CAN_COMM_TEST.c ****        *  Inport: '<S42>/In1'
1010:HANcoder_E407_CAN_COMM_TEST.c ****        *  Inport: '<S42>/In2'
1011:HANcoder_E407_CAN_COMM_TEST.c ****        *  Inport: '<S42>/In3'
1012:HANcoder_E407_CAN_COMM_TEST.c ****        *  Inport: '<S42>/In4'
1013:HANcoder_E407_CAN_COMM_TEST.c ****        *  Inport: '<S42>/In5'
1014:HANcoder_E407_CAN_COMM_TEST.c ****        *  Inport: '<S42>/In6'
1015:HANcoder_E407_CAN_COMM_TEST.c ****        *  Inport: '<S42>/In7'
1016:HANcoder_E407_CAN_COMM_TEST.c ****        *  Inport: '<S42>/In8'
1017:HANcoder_E407_CAN_COMM_TEST.c ****        */
1018:HANcoder_E407_CAN_COMM_TEST.c ****       rtb_Power2 = Rx_coded5_CAN2 - rtB.BitShift1_eg.y;
1019:HANcoder_E407_CAN_COMM_TEST.c **** 
1020:HANcoder_E407_CAN_COMM_TEST.c ****       /* Math: '<S26>/Power1' incorporates:
1021:HANcoder_E407_CAN_COMM_TEST.c ****        *  Constant: '<S10>/Constant4'
1022:HANcoder_E407_CAN_COMM_TEST.c ****        *  Constant: '<S26>/Constant2'
1023:HANcoder_E407_CAN_COMM_TEST.c ****        *  Math: '<S27>/Power1'
1024:HANcoder_E407_CAN_COMM_TEST.c ****        *  Math: '<S28>/Power1'
1025:HANcoder_E407_CAN_COMM_TEST.c ****        *  Math: '<S29>/Power1'
1026:HANcoder_E407_CAN_COMM_TEST.c ****        *  Math: '<S30>/Power1'
1027:HANcoder_E407_CAN_COMM_TEST.c ****        *  Math: '<S31>/Power1'
1028:HANcoder_E407_CAN_COMM_TEST.c ****        *  Math: '<S39>/Power1'
1029:HANcoder_E407_CAN_COMM_TEST.c ****        *  Math: '<S40>/Power1'
1030:HANcoder_E407_CAN_COMM_TEST.c ****        */
1031:HANcoder_E407_CAN_COMM_TEST.c ****       rtb_Minus = floor(precision_CAN2);
1032:HANcoder_E407_CAN_COMM_TEST.c ****       if ((2.0 < 0.0) && (precision_CAN2 > rtb_Minus)) {
1033:HANcoder_E407_CAN_COMM_TEST.c ****         rtb_Switch2 = -pow(-2.0, precision_CAN2);
1034:HANcoder_E407_CAN_COMM_TEST.c ****       } else {
1035:HANcoder_E407_CAN_COMM_TEST.c ****         rtb_Switch2 = pow(2.0, precision_CAN2);
1036:HANcoder_E407_CAN_COMM_TEST.c ****       }
1037:HANcoder_E407_CAN_COMM_TEST.c **** 
1038:HANcoder_E407_CAN_COMM_TEST.c ****       /* End of Math: '<S26>/Power1' */
1039:HANcoder_E407_CAN_COMM_TEST.c **** 
1040:HANcoder_E407_CAN_COMM_TEST.c ****       /* Product: '<S26>/Divide' */
1041:HANcoder_E407_CAN_COMM_TEST.c ****       rtb_Fix = rtb_Power2 / rtb_Switch2;
1042:HANcoder_E407_CAN_COMM_TEST.c **** 
1043:HANcoder_E407_CAN_COMM_TEST.c ****       /* Rounding: '<S26>/Fix1' */
1044:HANcoder_E407_CAN_COMM_TEST.c ****       if (rtb_Fix < 0.0) {
1045:HANcoder_E407_CAN_COMM_TEST.c ****         rtb_Fix = ceil(rtb_Fix);
1046:HANcoder_E407_CAN_COMM_TEST.c ****       } else {
1047:HANcoder_E407_CAN_COMM_TEST.c ****         rtb_Fix = floor(rtb_Fix);
1048:HANcoder_E407_CAN_COMM_TEST.c ****       }
1049:HANcoder_E407_CAN_COMM_TEST.c **** 
1050:HANcoder_E407_CAN_COMM_TEST.c ****       /* End of Rounding: '<S26>/Fix1' */
1051:HANcoder_E407_CAN_COMM_TEST.c **** 
1052:HANcoder_E407_CAN_COMM_TEST.c ****       /* Sum: '<S26>/Minus1' incorporates:
1053:HANcoder_E407_CAN_COMM_TEST.c ****        *  Product: '<S26>/Multiply1'
1054:HANcoder_E407_CAN_COMM_TEST.c ****        */
1055:HANcoder_E407_CAN_COMM_TEST.c ****       rtb_Power2 -= rtb_Fix * rtb_Switch2;
1056:HANcoder_E407_CAN_COMM_TEST.c **** 
1057:HANcoder_E407_CAN_COMM_TEST.c ****       /* Gain: '<S26>/Gain' incorporates:
1058:HANcoder_E407_CAN_COMM_TEST.c ****        *  Constant: '<S10>/Constant4'
1059:HANcoder_E407_CAN_COMM_TEST.c ****        *  Gain: '<S27>/Gain'
1060:HANcoder_E407_CAN_COMM_TEST.c ****        *  Gain: '<S28>/Gain'
1061:HANcoder_E407_CAN_COMM_TEST.c ****        *  Gain: '<S29>/Gain'
1062:HANcoder_E407_CAN_COMM_TEST.c ****        *  Gain: '<S30>/Gain'
1063:HANcoder_E407_CAN_COMM_TEST.c ****        *  Gain: '<S31>/Gain'
1064:HANcoder_E407_CAN_COMM_TEST.c ****        *  Gain: '<S39>/Gain'
1065:HANcoder_E407_CAN_COMM_TEST.c ****        *  Gain: '<S40>/Gain'
1066:HANcoder_E407_CAN_COMM_TEST.c ****        */
1067:HANcoder_E407_CAN_COMM_TEST.c ****       rtb_Fix1 = (-1.0) * precision_CAN2;
1068:HANcoder_E407_CAN_COMM_TEST.c **** 
1069:HANcoder_E407_CAN_COMM_TEST.c ****       /* Math: '<S26>/Power' incorporates:
1070:HANcoder_E407_CAN_COMM_TEST.c ****        *  Constant: '<S26>/Constant1'
1071:HANcoder_E407_CAN_COMM_TEST.c ****        *  Gain: '<S26>/Gain'
1072:HANcoder_E407_CAN_COMM_TEST.c ****        */
1073:HANcoder_E407_CAN_COMM_TEST.c ****       if ((2.0 < 0.0) && (rtb_Fix1 > floor(rtb_Fix1))) {
1074:HANcoder_E407_CAN_COMM_TEST.c ****         rtb_Switch2 = -pow(-2.0, rtb_Fix1);
1075:HANcoder_E407_CAN_COMM_TEST.c ****       } else {
1076:HANcoder_E407_CAN_COMM_TEST.c ****         rtb_Switch2 = pow(2.0, rtb_Fix1);
1077:HANcoder_E407_CAN_COMM_TEST.c ****       }
1078:HANcoder_E407_CAN_COMM_TEST.c **** 
1079:HANcoder_E407_CAN_COMM_TEST.c ****       /* End of Math: '<S26>/Power' */
1080:HANcoder_E407_CAN_COMM_TEST.c **** 
1081:HANcoder_E407_CAN_COMM_TEST.c ****       /* Switch: '<S26>/Switch' incorporates:
1082:HANcoder_E407_CAN_COMM_TEST.c ****        *  Gain: '<S26>/Gain1'
1083:HANcoder_E407_CAN_COMM_TEST.c ****        *  Product: '<S26>/Multiply'
1084:HANcoder_E407_CAN_COMM_TEST.c ****        *  Sum: '<S26>/Minus2'
1085:HANcoder_E407_CAN_COMM_TEST.c ****        */
1086:HANcoder_E407_CAN_COMM_TEST.c ****       if (rtB.BitShift_b.y > ((uint8_T)0U)) {
1087:HANcoder_E407_CAN_COMM_TEST.c ****         Rx_Buffer_5_CAN2 = (rtb_Power2 * rtb_Switch2 + rtb_Fix) * (-1.0);
1088:HANcoder_E407_CAN_COMM_TEST.c ****       } else {
1089:HANcoder_E407_CAN_COMM_TEST.c ****         Rx_Buffer_5_CAN2 = rtb_Power2 * rtb_Switch2 + rtb_Fix;
1090:HANcoder_E407_CAN_COMM_TEST.c ****       }
1091:HANcoder_E407_CAN_COMM_TEST.c **** 
1092:HANcoder_E407_CAN_COMM_TEST.c ****       /* End of Switch: '<S26>/Switch' */
1093:HANcoder_E407_CAN_COMM_TEST.c **** 
1094:HANcoder_E407_CAN_COMM_TEST.c ****       /* Outputs for Atomic SubSystem: '<S27>/Bit Shift' */
1095:HANcoder_E407_CAN_COMM_TEST.c ****       BitShift(Rx_coded4_CAN2, &rtB.BitShift_bk);
1096:HANcoder_E407_CAN_COMM_TEST.c **** 
1097:HANcoder_E407_CAN_COMM_TEST.c ****       /* End of Outputs for SubSystem: '<S27>/Bit Shift' */
1098:HANcoder_E407_CAN_COMM_TEST.c **** 
1099:HANcoder_E407_CAN_COMM_TEST.c ****       /* Outputs for Atomic SubSystem: '<S27>/Bit Shift1' */
1100:HANcoder_E407_CAN_COMM_TEST.c ****       BitShift1(rtB.BitShift_bk.y, &rtB.BitShift1_h);
1101:HANcoder_E407_CAN_COMM_TEST.c **** 
1102:HANcoder_E407_CAN_COMM_TEST.c ****       /* End of Outputs for SubSystem: '<S27>/Bit Shift1' */
1103:HANcoder_E407_CAN_COMM_TEST.c **** 
1104:HANcoder_E407_CAN_COMM_TEST.c ****       /* Sum: '<S27>/Minus' incorporates:
1105:HANcoder_E407_CAN_COMM_TEST.c ****        *  DataTypeConversion: '<S27>/Cast1'
1106:HANcoder_E407_CAN_COMM_TEST.c ****        */
1107:HANcoder_E407_CAN_COMM_TEST.c ****       rtb_Power2 = Rx_coded4_CAN2 - rtB.BitShift1_h.y;
1108:HANcoder_E407_CAN_COMM_TEST.c **** 
1109:HANcoder_E407_CAN_COMM_TEST.c ****       /* Math: '<S27>/Power1' incorporates:
1110:HANcoder_E407_CAN_COMM_TEST.c ****        *  Constant: '<S10>/Constant4'
1111:HANcoder_E407_CAN_COMM_TEST.c ****        *  Constant: '<S27>/Constant2'
1112:HANcoder_E407_CAN_COMM_TEST.c ****        */
1113:HANcoder_E407_CAN_COMM_TEST.c ****       if ((2.0 < 0.0) && (precision_CAN2 > rtb_Minus)) {
1114:HANcoder_E407_CAN_COMM_TEST.c ****         rtb_Switch2 = -pow(-2.0, precision_CAN2);
1115:HANcoder_E407_CAN_COMM_TEST.c ****       } else {
1116:HANcoder_E407_CAN_COMM_TEST.c ****         rtb_Switch2 = pow(2.0, precision_CAN2);
1117:HANcoder_E407_CAN_COMM_TEST.c ****       }
1118:HANcoder_E407_CAN_COMM_TEST.c **** 
1119:HANcoder_E407_CAN_COMM_TEST.c ****       /* Product: '<S27>/Divide' */
1120:HANcoder_E407_CAN_COMM_TEST.c ****       rtb_Fix = rtb_Power2 / rtb_Switch2;
1121:HANcoder_E407_CAN_COMM_TEST.c **** 
1122:HANcoder_E407_CAN_COMM_TEST.c ****       /* Rounding: '<S27>/Fix1' */
1123:HANcoder_E407_CAN_COMM_TEST.c ****       if (rtb_Fix < 0.0) {
1124:HANcoder_E407_CAN_COMM_TEST.c ****         rtb_Fix = ceil(rtb_Fix);
1125:HANcoder_E407_CAN_COMM_TEST.c ****       } else {
1126:HANcoder_E407_CAN_COMM_TEST.c ****         rtb_Fix = floor(rtb_Fix);
1127:HANcoder_E407_CAN_COMM_TEST.c ****       }
1128:HANcoder_E407_CAN_COMM_TEST.c **** 
1129:HANcoder_E407_CAN_COMM_TEST.c ****       /* End of Rounding: '<S27>/Fix1' */
1130:HANcoder_E407_CAN_COMM_TEST.c **** 
1131:HANcoder_E407_CAN_COMM_TEST.c ****       /* Sum: '<S27>/Minus1' incorporates:
1132:HANcoder_E407_CAN_COMM_TEST.c ****        *  Product: '<S27>/Multiply1'
1133:HANcoder_E407_CAN_COMM_TEST.c ****        */
1134:HANcoder_E407_CAN_COMM_TEST.c ****       rtb_Power2 -= rtb_Fix * rtb_Switch2;
1135:HANcoder_E407_CAN_COMM_TEST.c **** 
1136:HANcoder_E407_CAN_COMM_TEST.c ****       /* Math: '<S27>/Power' incorporates:
1137:HANcoder_E407_CAN_COMM_TEST.c ****        *  Constant: '<S27>/Constant1'
1138:HANcoder_E407_CAN_COMM_TEST.c ****        */
1139:HANcoder_E407_CAN_COMM_TEST.c ****       if ((2.0 < 0.0) && (rtb_Fix1 > floor(rtb_Fix1))) {
1140:HANcoder_E407_CAN_COMM_TEST.c ****         rtb_Switch2 = -pow(-2.0, rtb_Fix1);
1141:HANcoder_E407_CAN_COMM_TEST.c ****       } else {
1142:HANcoder_E407_CAN_COMM_TEST.c ****         rtb_Switch2 = pow(2.0, rtb_Fix1);
1143:HANcoder_E407_CAN_COMM_TEST.c ****       }
1144:HANcoder_E407_CAN_COMM_TEST.c **** 
1145:HANcoder_E407_CAN_COMM_TEST.c ****       /* End of Math: '<S27>/Power' */
1146:HANcoder_E407_CAN_COMM_TEST.c **** 
1147:HANcoder_E407_CAN_COMM_TEST.c ****       /* Switch: '<S27>/Switch' incorporates:
1148:HANcoder_E407_CAN_COMM_TEST.c ****        *  Gain: '<S27>/Gain1'
1149:HANcoder_E407_CAN_COMM_TEST.c ****        *  Product: '<S27>/Multiply'
1150:HANcoder_E407_CAN_COMM_TEST.c ****        *  Sum: '<S27>/Minus2'
1151:HANcoder_E407_CAN_COMM_TEST.c ****        */
1152:HANcoder_E407_CAN_COMM_TEST.c ****       if (rtB.BitShift_bk.y > ((uint8_T)0U)) {
1153:HANcoder_E407_CAN_COMM_TEST.c ****         Rx_Buffer_4_CAN2 = (rtb_Power2 * rtb_Switch2 + rtb_Fix) * (-1.0);
1154:HANcoder_E407_CAN_COMM_TEST.c ****       } else {
1155:HANcoder_E407_CAN_COMM_TEST.c ****         Rx_Buffer_4_CAN2 = rtb_Power2 * rtb_Switch2 + rtb_Fix;
1156:HANcoder_E407_CAN_COMM_TEST.c ****       }
1157:HANcoder_E407_CAN_COMM_TEST.c **** 
1158:HANcoder_E407_CAN_COMM_TEST.c ****       /* End of Switch: '<S27>/Switch' */
1159:HANcoder_E407_CAN_COMM_TEST.c **** 
1160:HANcoder_E407_CAN_COMM_TEST.c ****       /* Outputs for Atomic SubSystem: '<S28>/Bit Shift' */
1161:HANcoder_E407_CAN_COMM_TEST.c ****       BitShift(Rx_coded3_CAN2, &rtB.BitShift_p);
1162:HANcoder_E407_CAN_COMM_TEST.c **** 
1163:HANcoder_E407_CAN_COMM_TEST.c ****       /* End of Outputs for SubSystem: '<S28>/Bit Shift' */
1164:HANcoder_E407_CAN_COMM_TEST.c **** 
1165:HANcoder_E407_CAN_COMM_TEST.c ****       /* Outputs for Atomic SubSystem: '<S28>/Bit Shift1' */
1166:HANcoder_E407_CAN_COMM_TEST.c ****       BitShift1(rtB.BitShift_p.y, &rtB.BitShift1_k);
1167:HANcoder_E407_CAN_COMM_TEST.c **** 
1168:HANcoder_E407_CAN_COMM_TEST.c ****       /* End of Outputs for SubSystem: '<S28>/Bit Shift1' */
1169:HANcoder_E407_CAN_COMM_TEST.c **** 
1170:HANcoder_E407_CAN_COMM_TEST.c ****       /* Sum: '<S28>/Minus' incorporates:
1171:HANcoder_E407_CAN_COMM_TEST.c ****        *  DataTypeConversion: '<S28>/Cast1'
1172:HANcoder_E407_CAN_COMM_TEST.c ****        */
1173:HANcoder_E407_CAN_COMM_TEST.c ****       rtb_Power2 = Rx_coded3_CAN2 - rtB.BitShift1_k.y;
1174:HANcoder_E407_CAN_COMM_TEST.c **** 
1175:HANcoder_E407_CAN_COMM_TEST.c ****       /* Math: '<S28>/Power1' incorporates:
1176:HANcoder_E407_CAN_COMM_TEST.c ****        *  Constant: '<S10>/Constant4'
1177:HANcoder_E407_CAN_COMM_TEST.c ****        *  Constant: '<S28>/Constant2'
1178:HANcoder_E407_CAN_COMM_TEST.c ****        */
1179:HANcoder_E407_CAN_COMM_TEST.c ****       if ((2.0 < 0.0) && (precision_CAN2 > rtb_Minus)) {
1180:HANcoder_E407_CAN_COMM_TEST.c ****         rtb_Switch2 = -pow(-2.0, precision_CAN2);
1181:HANcoder_E407_CAN_COMM_TEST.c ****       } else {
1182:HANcoder_E407_CAN_COMM_TEST.c ****         rtb_Switch2 = pow(2.0, precision_CAN2);
1183:HANcoder_E407_CAN_COMM_TEST.c ****       }
1184:HANcoder_E407_CAN_COMM_TEST.c **** 
1185:HANcoder_E407_CAN_COMM_TEST.c ****       /* Product: '<S28>/Divide' */
1186:HANcoder_E407_CAN_COMM_TEST.c ****       rtb_Fix = rtb_Power2 / rtb_Switch2;
1187:HANcoder_E407_CAN_COMM_TEST.c **** 
1188:HANcoder_E407_CAN_COMM_TEST.c ****       /* Rounding: '<S28>/Fix1' */
1189:HANcoder_E407_CAN_COMM_TEST.c ****       if (rtb_Fix < 0.0) {
1190:HANcoder_E407_CAN_COMM_TEST.c ****         rtb_Fix = ceil(rtb_Fix);
1191:HANcoder_E407_CAN_COMM_TEST.c ****       } else {
1192:HANcoder_E407_CAN_COMM_TEST.c ****         rtb_Fix = floor(rtb_Fix);
1193:HANcoder_E407_CAN_COMM_TEST.c ****       }
1194:HANcoder_E407_CAN_COMM_TEST.c **** 
1195:HANcoder_E407_CAN_COMM_TEST.c ****       /* End of Rounding: '<S28>/Fix1' */
1196:HANcoder_E407_CAN_COMM_TEST.c **** 
1197:HANcoder_E407_CAN_COMM_TEST.c ****       /* Sum: '<S28>/Minus1' incorporates:
1198:HANcoder_E407_CAN_COMM_TEST.c ****        *  Product: '<S28>/Multiply1'
1199:HANcoder_E407_CAN_COMM_TEST.c ****        */
1200:HANcoder_E407_CAN_COMM_TEST.c ****       rtb_Power2 -= rtb_Fix * rtb_Switch2;
1201:HANcoder_E407_CAN_COMM_TEST.c **** 
1202:HANcoder_E407_CAN_COMM_TEST.c ****       /* Math: '<S28>/Power' incorporates:
1203:HANcoder_E407_CAN_COMM_TEST.c ****        *  Constant: '<S28>/Constant1'
1204:HANcoder_E407_CAN_COMM_TEST.c ****        */
1205:HANcoder_E407_CAN_COMM_TEST.c ****       if ((2.0 < 0.0) && (rtb_Fix1 > floor(rtb_Fix1))) {
1206:HANcoder_E407_CAN_COMM_TEST.c ****         rtb_Switch2 = -pow(-2.0, rtb_Fix1);
1207:HANcoder_E407_CAN_COMM_TEST.c ****       } else {
1208:HANcoder_E407_CAN_COMM_TEST.c ****         rtb_Switch2 = pow(2.0, rtb_Fix1);
1209:HANcoder_E407_CAN_COMM_TEST.c ****       }
1210:HANcoder_E407_CAN_COMM_TEST.c **** 
1211:HANcoder_E407_CAN_COMM_TEST.c ****       /* End of Math: '<S28>/Power' */
1212:HANcoder_E407_CAN_COMM_TEST.c **** 
1213:HANcoder_E407_CAN_COMM_TEST.c ****       /* Switch: '<S28>/Switch' incorporates:
1214:HANcoder_E407_CAN_COMM_TEST.c ****        *  Gain: '<S28>/Gain1'
1215:HANcoder_E407_CAN_COMM_TEST.c ****        *  Product: '<S28>/Multiply'
1216:HANcoder_E407_CAN_COMM_TEST.c ****        *  Sum: '<S28>/Minus2'
1217:HANcoder_E407_CAN_COMM_TEST.c ****        */
1218:HANcoder_E407_CAN_COMM_TEST.c ****       if (rtB.BitShift_p.y > ((uint8_T)0U)) {
1219:HANcoder_E407_CAN_COMM_TEST.c ****         Rx_Buffer_3_CAN2 = (rtb_Power2 * rtb_Switch2 + rtb_Fix) * (-1.0);
1220:HANcoder_E407_CAN_COMM_TEST.c ****       } else {
1221:HANcoder_E407_CAN_COMM_TEST.c ****         Rx_Buffer_3_CAN2 = rtb_Power2 * rtb_Switch2 + rtb_Fix;
1222:HANcoder_E407_CAN_COMM_TEST.c ****       }
1223:HANcoder_E407_CAN_COMM_TEST.c **** 
1224:HANcoder_E407_CAN_COMM_TEST.c ****       /* End of Switch: '<S28>/Switch' */
1225:HANcoder_E407_CAN_COMM_TEST.c **** 
1226:HANcoder_E407_CAN_COMM_TEST.c ****       /* Outputs for Atomic SubSystem: '<S29>/Bit Shift' */
1227:HANcoder_E407_CAN_COMM_TEST.c ****       BitShift(Rx_coded2_CAN2, &rtB.BitShift_k);
1228:HANcoder_E407_CAN_COMM_TEST.c **** 
1229:HANcoder_E407_CAN_COMM_TEST.c ****       /* End of Outputs for SubSystem: '<S29>/Bit Shift' */
1230:HANcoder_E407_CAN_COMM_TEST.c **** 
1231:HANcoder_E407_CAN_COMM_TEST.c ****       /* Outputs for Atomic SubSystem: '<S29>/Bit Shift1' */
1232:HANcoder_E407_CAN_COMM_TEST.c ****       BitShift1(rtB.BitShift_k.y, &rtB.BitShift1_g);
1233:HANcoder_E407_CAN_COMM_TEST.c **** 
1234:HANcoder_E407_CAN_COMM_TEST.c ****       /* End of Outputs for SubSystem: '<S29>/Bit Shift1' */
1235:HANcoder_E407_CAN_COMM_TEST.c **** 
1236:HANcoder_E407_CAN_COMM_TEST.c ****       /* Sum: '<S29>/Minus' incorporates:
1237:HANcoder_E407_CAN_COMM_TEST.c ****        *  DataTypeConversion: '<S29>/Cast1'
1238:HANcoder_E407_CAN_COMM_TEST.c ****        */
1239:HANcoder_E407_CAN_COMM_TEST.c ****       rtb_Power2 = Rx_coded2_CAN2 - rtB.BitShift1_g.y;
1240:HANcoder_E407_CAN_COMM_TEST.c **** 
1241:HANcoder_E407_CAN_COMM_TEST.c ****       /* Math: '<S29>/Power1' incorporates:
1242:HANcoder_E407_CAN_COMM_TEST.c ****        *  Constant: '<S10>/Constant4'
1243:HANcoder_E407_CAN_COMM_TEST.c ****        *  Constant: '<S29>/Constant2'
1244:HANcoder_E407_CAN_COMM_TEST.c ****        */
1245:HANcoder_E407_CAN_COMM_TEST.c ****       if ((2.0 < 0.0) && (precision_CAN2 > rtb_Minus)) {
1246:HANcoder_E407_CAN_COMM_TEST.c ****         rtb_Switch2 = -pow(-2.0, precision_CAN2);
1247:HANcoder_E407_CAN_COMM_TEST.c ****       } else {
1248:HANcoder_E407_CAN_COMM_TEST.c ****         rtb_Switch2 = pow(2.0, precision_CAN2);
1249:HANcoder_E407_CAN_COMM_TEST.c ****       }
1250:HANcoder_E407_CAN_COMM_TEST.c **** 
1251:HANcoder_E407_CAN_COMM_TEST.c ****       /* Product: '<S29>/Divide' */
1252:HANcoder_E407_CAN_COMM_TEST.c ****       rtb_Fix = rtb_Power2 / rtb_Switch2;
1253:HANcoder_E407_CAN_COMM_TEST.c **** 
1254:HANcoder_E407_CAN_COMM_TEST.c ****       /* Rounding: '<S29>/Fix1' */
1255:HANcoder_E407_CAN_COMM_TEST.c ****       if (rtb_Fix < 0.0) {
1256:HANcoder_E407_CAN_COMM_TEST.c ****         rtb_Fix = ceil(rtb_Fix);
1257:HANcoder_E407_CAN_COMM_TEST.c ****       } else {
1258:HANcoder_E407_CAN_COMM_TEST.c ****         rtb_Fix = floor(rtb_Fix);
1259:HANcoder_E407_CAN_COMM_TEST.c ****       }
1260:HANcoder_E407_CAN_COMM_TEST.c **** 
1261:HANcoder_E407_CAN_COMM_TEST.c ****       /* End of Rounding: '<S29>/Fix1' */
1262:HANcoder_E407_CAN_COMM_TEST.c **** 
1263:HANcoder_E407_CAN_COMM_TEST.c ****       /* Sum: '<S29>/Minus1' incorporates:
1264:HANcoder_E407_CAN_COMM_TEST.c ****        *  Product: '<S29>/Multiply1'
1265:HANcoder_E407_CAN_COMM_TEST.c ****        */
1266:HANcoder_E407_CAN_COMM_TEST.c ****       rtb_Power2 -= rtb_Fix * rtb_Switch2;
1267:HANcoder_E407_CAN_COMM_TEST.c **** 
1268:HANcoder_E407_CAN_COMM_TEST.c ****       /* Math: '<S29>/Power' incorporates:
1269:HANcoder_E407_CAN_COMM_TEST.c ****        *  Constant: '<S29>/Constant1'
1270:HANcoder_E407_CAN_COMM_TEST.c ****        */
1271:HANcoder_E407_CAN_COMM_TEST.c ****       if ((2.0 < 0.0) && (rtb_Fix1 > floor(rtb_Fix1))) {
1272:HANcoder_E407_CAN_COMM_TEST.c ****         rtb_Switch2 = -pow(-2.0, rtb_Fix1);
1273:HANcoder_E407_CAN_COMM_TEST.c ****       } else {
1274:HANcoder_E407_CAN_COMM_TEST.c ****         rtb_Switch2 = pow(2.0, rtb_Fix1);
1275:HANcoder_E407_CAN_COMM_TEST.c ****       }
1276:HANcoder_E407_CAN_COMM_TEST.c **** 
1277:HANcoder_E407_CAN_COMM_TEST.c ****       /* End of Math: '<S29>/Power' */
1278:HANcoder_E407_CAN_COMM_TEST.c **** 
1279:HANcoder_E407_CAN_COMM_TEST.c ****       /* Switch: '<S29>/Switch' incorporates:
1280:HANcoder_E407_CAN_COMM_TEST.c ****        *  Gain: '<S29>/Gain1'
1281:HANcoder_E407_CAN_COMM_TEST.c ****        *  Product: '<S29>/Multiply'
1282:HANcoder_E407_CAN_COMM_TEST.c ****        *  Sum: '<S29>/Minus2'
1283:HANcoder_E407_CAN_COMM_TEST.c ****        */
1284:HANcoder_E407_CAN_COMM_TEST.c ****       if (rtB.BitShift_k.y > ((uint8_T)0U)) {
1285:HANcoder_E407_CAN_COMM_TEST.c ****         Rx_Buffer_2_CAN2 = (rtb_Power2 * rtb_Switch2 + rtb_Fix) * (-1.0);
1286:HANcoder_E407_CAN_COMM_TEST.c ****       } else {
1287:HANcoder_E407_CAN_COMM_TEST.c ****         Rx_Buffer_2_CAN2 = rtb_Power2 * rtb_Switch2 + rtb_Fix;
1288:HANcoder_E407_CAN_COMM_TEST.c ****       }
1289:HANcoder_E407_CAN_COMM_TEST.c **** 
1290:HANcoder_E407_CAN_COMM_TEST.c ****       /* End of Switch: '<S29>/Switch' */
1291:HANcoder_E407_CAN_COMM_TEST.c **** 
1292:HANcoder_E407_CAN_COMM_TEST.c ****       /* Outputs for Atomic SubSystem: '<S30>/Bit Shift' */
1293:HANcoder_E407_CAN_COMM_TEST.c ****       BitShift(Rx_coded7_CAN2, &rtB.BitShift_h);
1294:HANcoder_E407_CAN_COMM_TEST.c **** 
1295:HANcoder_E407_CAN_COMM_TEST.c ****       /* End of Outputs for SubSystem: '<S30>/Bit Shift' */
1296:HANcoder_E407_CAN_COMM_TEST.c **** 
1297:HANcoder_E407_CAN_COMM_TEST.c ****       /* Outputs for Atomic SubSystem: '<S30>/Bit Shift1' */
1298:HANcoder_E407_CAN_COMM_TEST.c ****       BitShift1(rtB.BitShift_h.y, &rtB.BitShift1_j);
1299:HANcoder_E407_CAN_COMM_TEST.c **** 
1300:HANcoder_E407_CAN_COMM_TEST.c ****       /* End of Outputs for SubSystem: '<S30>/Bit Shift1' */
1301:HANcoder_E407_CAN_COMM_TEST.c **** 
1302:HANcoder_E407_CAN_COMM_TEST.c ****       /* Sum: '<S30>/Minus' incorporates:
1303:HANcoder_E407_CAN_COMM_TEST.c ****        *  DataTypeConversion: '<S30>/Cast1'
1304:HANcoder_E407_CAN_COMM_TEST.c ****        */
1305:HANcoder_E407_CAN_COMM_TEST.c ****       rtb_Power2 = Rx_coded7_CAN2 - rtB.BitShift1_j.y;
1306:HANcoder_E407_CAN_COMM_TEST.c **** 
1307:HANcoder_E407_CAN_COMM_TEST.c ****       /* Math: '<S30>/Power1' incorporates:
1308:HANcoder_E407_CAN_COMM_TEST.c ****        *  Constant: '<S10>/Constant4'
1309:HANcoder_E407_CAN_COMM_TEST.c ****        *  Constant: '<S30>/Constant2'
1310:HANcoder_E407_CAN_COMM_TEST.c ****        */
1311:HANcoder_E407_CAN_COMM_TEST.c ****       if ((2.0 < 0.0) && (precision_CAN2 > rtb_Minus)) {
1312:HANcoder_E407_CAN_COMM_TEST.c ****         rtb_Switch2 = -pow(-2.0, precision_CAN2);
1313:HANcoder_E407_CAN_COMM_TEST.c ****       } else {
1314:HANcoder_E407_CAN_COMM_TEST.c ****         rtb_Switch2 = pow(2.0, precision_CAN2);
1315:HANcoder_E407_CAN_COMM_TEST.c ****       }
1316:HANcoder_E407_CAN_COMM_TEST.c **** 
1317:HANcoder_E407_CAN_COMM_TEST.c ****       /* Product: '<S30>/Divide' */
1318:HANcoder_E407_CAN_COMM_TEST.c ****       rtb_Fix = rtb_Power2 / rtb_Switch2;
1319:HANcoder_E407_CAN_COMM_TEST.c **** 
1320:HANcoder_E407_CAN_COMM_TEST.c ****       /* Rounding: '<S30>/Fix1' */
1321:HANcoder_E407_CAN_COMM_TEST.c ****       if (rtb_Fix < 0.0) {
1322:HANcoder_E407_CAN_COMM_TEST.c ****         rtb_Fix = ceil(rtb_Fix);
1323:HANcoder_E407_CAN_COMM_TEST.c ****       } else {
1324:HANcoder_E407_CAN_COMM_TEST.c ****         rtb_Fix = floor(rtb_Fix);
1325:HANcoder_E407_CAN_COMM_TEST.c ****       }
1326:HANcoder_E407_CAN_COMM_TEST.c **** 
1327:HANcoder_E407_CAN_COMM_TEST.c ****       /* End of Rounding: '<S30>/Fix1' */
1328:HANcoder_E407_CAN_COMM_TEST.c **** 
1329:HANcoder_E407_CAN_COMM_TEST.c ****       /* Sum: '<S30>/Minus1' incorporates:
1330:HANcoder_E407_CAN_COMM_TEST.c ****        *  Product: '<S30>/Multiply1'
1331:HANcoder_E407_CAN_COMM_TEST.c ****        */
1332:HANcoder_E407_CAN_COMM_TEST.c ****       rtb_Power2 -= rtb_Fix * rtb_Switch2;
1333:HANcoder_E407_CAN_COMM_TEST.c **** 
1334:HANcoder_E407_CAN_COMM_TEST.c ****       /* Math: '<S30>/Power' incorporates:
1335:HANcoder_E407_CAN_COMM_TEST.c ****        *  Constant: '<S30>/Constant1'
1336:HANcoder_E407_CAN_COMM_TEST.c ****        */
1337:HANcoder_E407_CAN_COMM_TEST.c ****       if ((2.0 < 0.0) && (rtb_Fix1 > floor(rtb_Fix1))) {
1338:HANcoder_E407_CAN_COMM_TEST.c ****         rtb_Switch2 = -pow(-2.0, rtb_Fix1);
1339:HANcoder_E407_CAN_COMM_TEST.c ****       } else {
1340:HANcoder_E407_CAN_COMM_TEST.c ****         rtb_Switch2 = pow(2.0, rtb_Fix1);
1341:HANcoder_E407_CAN_COMM_TEST.c ****       }
1342:HANcoder_E407_CAN_COMM_TEST.c **** 
1343:HANcoder_E407_CAN_COMM_TEST.c ****       /* End of Math: '<S30>/Power' */
1344:HANcoder_E407_CAN_COMM_TEST.c **** 
1345:HANcoder_E407_CAN_COMM_TEST.c ****       /* Switch: '<S30>/Switch' incorporates:
1346:HANcoder_E407_CAN_COMM_TEST.c ****        *  Gain: '<S30>/Gain1'
1347:HANcoder_E407_CAN_COMM_TEST.c ****        *  Product: '<S30>/Multiply'
1348:HANcoder_E407_CAN_COMM_TEST.c ****        *  Sum: '<S30>/Minus2'
1349:HANcoder_E407_CAN_COMM_TEST.c ****        */
1350:HANcoder_E407_CAN_COMM_TEST.c ****       if (rtB.BitShift_h.y > ((uint8_T)0U)) {
1351:HANcoder_E407_CAN_COMM_TEST.c ****         Rx_Buffer_7_CAN2 = (rtb_Power2 * rtb_Switch2 + rtb_Fix) * (-1.0);
1352:HANcoder_E407_CAN_COMM_TEST.c ****       } else {
1353:HANcoder_E407_CAN_COMM_TEST.c ****         Rx_Buffer_7_CAN2 = rtb_Power2 * rtb_Switch2 + rtb_Fix;
1354:HANcoder_E407_CAN_COMM_TEST.c ****       }
1355:HANcoder_E407_CAN_COMM_TEST.c **** 
1356:HANcoder_E407_CAN_COMM_TEST.c ****       /* End of Switch: '<S30>/Switch' */
1357:HANcoder_E407_CAN_COMM_TEST.c **** 
1358:HANcoder_E407_CAN_COMM_TEST.c ****       /* Outputs for Atomic SubSystem: '<S31>/Bit Shift' */
1359:HANcoder_E407_CAN_COMM_TEST.c ****       BitShift(Rx_coded1_CAN2, &rtB.BitShift_a);
1360:HANcoder_E407_CAN_COMM_TEST.c **** 
1361:HANcoder_E407_CAN_COMM_TEST.c ****       /* End of Outputs for SubSystem: '<S31>/Bit Shift' */
1362:HANcoder_E407_CAN_COMM_TEST.c **** 
1363:HANcoder_E407_CAN_COMM_TEST.c ****       /* Outputs for Atomic SubSystem: '<S31>/Bit Shift1' */
1364:HANcoder_E407_CAN_COMM_TEST.c ****       BitShift1(rtB.BitShift_a.y, &rtB.BitShift1_b);
1365:HANcoder_E407_CAN_COMM_TEST.c **** 
1366:HANcoder_E407_CAN_COMM_TEST.c ****       /* End of Outputs for SubSystem: '<S31>/Bit Shift1' */
1367:HANcoder_E407_CAN_COMM_TEST.c **** 
1368:HANcoder_E407_CAN_COMM_TEST.c ****       /* Sum: '<S31>/Minus' incorporates:
1369:HANcoder_E407_CAN_COMM_TEST.c ****        *  DataTypeConversion: '<S31>/Cast1'
1370:HANcoder_E407_CAN_COMM_TEST.c ****        */
1371:HANcoder_E407_CAN_COMM_TEST.c ****       rtb_Power2 = Rx_coded1_CAN2 - rtB.BitShift1_b.y;
1372:HANcoder_E407_CAN_COMM_TEST.c **** 
1373:HANcoder_E407_CAN_COMM_TEST.c ****       /* Math: '<S31>/Power1' incorporates:
1374:HANcoder_E407_CAN_COMM_TEST.c ****        *  Constant: '<S10>/Constant4'
1375:HANcoder_E407_CAN_COMM_TEST.c ****        *  Constant: '<S31>/Constant2'
1376:HANcoder_E407_CAN_COMM_TEST.c ****        */
1377:HANcoder_E407_CAN_COMM_TEST.c ****       if ((2.0 < 0.0) && (precision_CAN2 > rtb_Minus)) {
1378:HANcoder_E407_CAN_COMM_TEST.c ****         rtb_Switch2 = -pow(-2.0, precision_CAN2);
1379:HANcoder_E407_CAN_COMM_TEST.c ****       } else {
1380:HANcoder_E407_CAN_COMM_TEST.c ****         rtb_Switch2 = pow(2.0, precision_CAN2);
1381:HANcoder_E407_CAN_COMM_TEST.c ****       }
1382:HANcoder_E407_CAN_COMM_TEST.c **** 
1383:HANcoder_E407_CAN_COMM_TEST.c ****       /* Product: '<S31>/Divide' */
1384:HANcoder_E407_CAN_COMM_TEST.c ****       rtb_Fix = rtb_Power2 / rtb_Switch2;
1385:HANcoder_E407_CAN_COMM_TEST.c **** 
1386:HANcoder_E407_CAN_COMM_TEST.c ****       /* Rounding: '<S31>/Fix1' */
1387:HANcoder_E407_CAN_COMM_TEST.c ****       if (rtb_Fix < 0.0) {
1388:HANcoder_E407_CAN_COMM_TEST.c ****         rtb_Fix = ceil(rtb_Fix);
1389:HANcoder_E407_CAN_COMM_TEST.c ****       } else {
1390:HANcoder_E407_CAN_COMM_TEST.c ****         rtb_Fix = floor(rtb_Fix);
1391:HANcoder_E407_CAN_COMM_TEST.c ****       }
1392:HANcoder_E407_CAN_COMM_TEST.c **** 
1393:HANcoder_E407_CAN_COMM_TEST.c ****       /* End of Rounding: '<S31>/Fix1' */
1394:HANcoder_E407_CAN_COMM_TEST.c **** 
1395:HANcoder_E407_CAN_COMM_TEST.c ****       /* Sum: '<S31>/Minus1' incorporates:
1396:HANcoder_E407_CAN_COMM_TEST.c ****        *  Product: '<S31>/Multiply1'
1397:HANcoder_E407_CAN_COMM_TEST.c ****        */
1398:HANcoder_E407_CAN_COMM_TEST.c ****       rtb_Power2 -= rtb_Fix * rtb_Switch2;
1399:HANcoder_E407_CAN_COMM_TEST.c **** 
1400:HANcoder_E407_CAN_COMM_TEST.c ****       /* Math: '<S31>/Power' incorporates:
1401:HANcoder_E407_CAN_COMM_TEST.c ****        *  Constant: '<S31>/Constant1'
1402:HANcoder_E407_CAN_COMM_TEST.c ****        */
1403:HANcoder_E407_CAN_COMM_TEST.c ****       if ((2.0 < 0.0) && (rtb_Fix1 > floor(rtb_Fix1))) {
1404:HANcoder_E407_CAN_COMM_TEST.c ****         rtb_Switch2 = -pow(-2.0, rtb_Fix1);
1405:HANcoder_E407_CAN_COMM_TEST.c ****       } else {
1406:HANcoder_E407_CAN_COMM_TEST.c ****         rtb_Switch2 = pow(2.0, rtb_Fix1);
1407:HANcoder_E407_CAN_COMM_TEST.c ****       }
1408:HANcoder_E407_CAN_COMM_TEST.c **** 
1409:HANcoder_E407_CAN_COMM_TEST.c ****       /* End of Math: '<S31>/Power' */
1410:HANcoder_E407_CAN_COMM_TEST.c **** 
1411:HANcoder_E407_CAN_COMM_TEST.c ****       /* Switch: '<S31>/Switch' incorporates:
1412:HANcoder_E407_CAN_COMM_TEST.c ****        *  Gain: '<S31>/Gain1'
1413:HANcoder_E407_CAN_COMM_TEST.c ****        *  Product: '<S31>/Multiply'
1414:HANcoder_E407_CAN_COMM_TEST.c ****        *  Sum: '<S31>/Minus2'
1415:HANcoder_E407_CAN_COMM_TEST.c ****        */
1416:HANcoder_E407_CAN_COMM_TEST.c ****       if (rtB.BitShift_a.y > ((uint8_T)0U)) {
1417:HANcoder_E407_CAN_COMM_TEST.c ****         Rx_Buffer_1_CAN2 = (rtb_Power2 * rtb_Switch2 + rtb_Fix) * (-1.0);
1418:HANcoder_E407_CAN_COMM_TEST.c ****       } else {
1419:HANcoder_E407_CAN_COMM_TEST.c ****         Rx_Buffer_1_CAN2 = rtb_Power2 * rtb_Switch2 + rtb_Fix;
1420:HANcoder_E407_CAN_COMM_TEST.c ****       }
1421:HANcoder_E407_CAN_COMM_TEST.c **** 
1422:HANcoder_E407_CAN_COMM_TEST.c ****       /* End of Switch: '<S31>/Switch' */
1423:HANcoder_E407_CAN_COMM_TEST.c **** 
1424:HANcoder_E407_CAN_COMM_TEST.c ****       /* Outputs for Atomic SubSystem: '<S39>/Bit Shift' */
1425:HANcoder_E407_CAN_COMM_TEST.c ****       BitShift(Rx_coded8_CAN2, &rtB.BitShift_kk);
1426:HANcoder_E407_CAN_COMM_TEST.c **** 
1427:HANcoder_E407_CAN_COMM_TEST.c ****       /* End of Outputs for SubSystem: '<S39>/Bit Shift' */
1428:HANcoder_E407_CAN_COMM_TEST.c **** 
1429:HANcoder_E407_CAN_COMM_TEST.c ****       /* Outputs for Atomic SubSystem: '<S39>/Bit Shift1' */
1430:HANcoder_E407_CAN_COMM_TEST.c ****       BitShift1(rtB.BitShift_kk.y, &rtB.BitShift1_fh);
1431:HANcoder_E407_CAN_COMM_TEST.c **** 
1432:HANcoder_E407_CAN_COMM_TEST.c ****       /* End of Outputs for SubSystem: '<S39>/Bit Shift1' */
1433:HANcoder_E407_CAN_COMM_TEST.c **** 
1434:HANcoder_E407_CAN_COMM_TEST.c ****       /* Sum: '<S39>/Minus' incorporates:
1435:HANcoder_E407_CAN_COMM_TEST.c ****        *  DataTypeConversion: '<S39>/Cast1'
1436:HANcoder_E407_CAN_COMM_TEST.c ****        */
1437:HANcoder_E407_CAN_COMM_TEST.c ****       rtb_Power2 = Rx_coded8_CAN2 - rtB.BitShift1_fh.y;
1438:HANcoder_E407_CAN_COMM_TEST.c **** 
1439:HANcoder_E407_CAN_COMM_TEST.c ****       /* Math: '<S39>/Power1' incorporates:
1440:HANcoder_E407_CAN_COMM_TEST.c ****        *  Constant: '<S10>/Constant4'
1441:HANcoder_E407_CAN_COMM_TEST.c ****        *  Constant: '<S39>/Constant2'
1442:HANcoder_E407_CAN_COMM_TEST.c ****        */
1443:HANcoder_E407_CAN_COMM_TEST.c ****       if ((2.0 < 0.0) && (precision_CAN2 > rtb_Minus)) {
1444:HANcoder_E407_CAN_COMM_TEST.c ****         rtb_Switch2 = -pow(-2.0, precision_CAN2);
1445:HANcoder_E407_CAN_COMM_TEST.c ****       } else {
1446:HANcoder_E407_CAN_COMM_TEST.c ****         rtb_Switch2 = pow(2.0, precision_CAN2);
1447:HANcoder_E407_CAN_COMM_TEST.c ****       }
1448:HANcoder_E407_CAN_COMM_TEST.c **** 
1449:HANcoder_E407_CAN_COMM_TEST.c ****       /* Product: '<S39>/Divide' */
1450:HANcoder_E407_CAN_COMM_TEST.c ****       rtb_Fix = rtb_Power2 / rtb_Switch2;
1451:HANcoder_E407_CAN_COMM_TEST.c **** 
1452:HANcoder_E407_CAN_COMM_TEST.c ****       /* Rounding: '<S39>/Fix1' */
1453:HANcoder_E407_CAN_COMM_TEST.c ****       if (rtb_Fix < 0.0) {
1454:HANcoder_E407_CAN_COMM_TEST.c ****         rtb_Fix = ceil(rtb_Fix);
1455:HANcoder_E407_CAN_COMM_TEST.c ****       } else {
1456:HANcoder_E407_CAN_COMM_TEST.c ****         rtb_Fix = floor(rtb_Fix);
1457:HANcoder_E407_CAN_COMM_TEST.c ****       }
1458:HANcoder_E407_CAN_COMM_TEST.c **** 
1459:HANcoder_E407_CAN_COMM_TEST.c ****       /* End of Rounding: '<S39>/Fix1' */
1460:HANcoder_E407_CAN_COMM_TEST.c **** 
1461:HANcoder_E407_CAN_COMM_TEST.c ****       /* Sum: '<S39>/Minus1' incorporates:
1462:HANcoder_E407_CAN_COMM_TEST.c ****        *  Product: '<S39>/Multiply1'
1463:HANcoder_E407_CAN_COMM_TEST.c ****        */
1464:HANcoder_E407_CAN_COMM_TEST.c ****       rtb_Power2 -= rtb_Fix * rtb_Switch2;
1465:HANcoder_E407_CAN_COMM_TEST.c **** 
1466:HANcoder_E407_CAN_COMM_TEST.c ****       /* Math: '<S39>/Power' incorporates:
1467:HANcoder_E407_CAN_COMM_TEST.c ****        *  Constant: '<S39>/Constant1'
1468:HANcoder_E407_CAN_COMM_TEST.c ****        */
1469:HANcoder_E407_CAN_COMM_TEST.c ****       if ((2.0 < 0.0) && (rtb_Fix1 > floor(rtb_Fix1))) {
1470:HANcoder_E407_CAN_COMM_TEST.c ****         rtb_Switch2 = -pow(-2.0, rtb_Fix1);
1471:HANcoder_E407_CAN_COMM_TEST.c ****       } else {
1472:HANcoder_E407_CAN_COMM_TEST.c ****         rtb_Switch2 = pow(2.0, rtb_Fix1);
1473:HANcoder_E407_CAN_COMM_TEST.c ****       }
1474:HANcoder_E407_CAN_COMM_TEST.c **** 
1475:HANcoder_E407_CAN_COMM_TEST.c ****       /* End of Math: '<S39>/Power' */
1476:HANcoder_E407_CAN_COMM_TEST.c **** 
1477:HANcoder_E407_CAN_COMM_TEST.c ****       /* Switch: '<S39>/Switch' incorporates:
1478:HANcoder_E407_CAN_COMM_TEST.c ****        *  Gain: '<S39>/Gain1'
1479:HANcoder_E407_CAN_COMM_TEST.c ****        *  Product: '<S39>/Multiply'
1480:HANcoder_E407_CAN_COMM_TEST.c ****        *  Sum: '<S39>/Minus2'
1481:HANcoder_E407_CAN_COMM_TEST.c ****        */
1482:HANcoder_E407_CAN_COMM_TEST.c ****       if (rtB.BitShift_kk.y > ((uint8_T)0U)) {
1483:HANcoder_E407_CAN_COMM_TEST.c ****         Rx_Buffer_8_CAN2 = (rtb_Power2 * rtb_Switch2 + rtb_Fix) * (-1.0);
1484:HANcoder_E407_CAN_COMM_TEST.c ****       } else {
1485:HANcoder_E407_CAN_COMM_TEST.c ****         Rx_Buffer_8_CAN2 = rtb_Power2 * rtb_Switch2 + rtb_Fix;
1486:HANcoder_E407_CAN_COMM_TEST.c ****       }
1487:HANcoder_E407_CAN_COMM_TEST.c **** 
1488:HANcoder_E407_CAN_COMM_TEST.c ****       /* End of Switch: '<S39>/Switch' */
1489:HANcoder_E407_CAN_COMM_TEST.c **** 
1490:HANcoder_E407_CAN_COMM_TEST.c ****       /* Outputs for Atomic SubSystem: '<S40>/Bit Shift' */
1491:HANcoder_E407_CAN_COMM_TEST.c ****       BitShift(Rx_coded6_CAN2, &rtB.BitShift_e);
1492:HANcoder_E407_CAN_COMM_TEST.c **** 
1493:HANcoder_E407_CAN_COMM_TEST.c ****       /* End of Outputs for SubSystem: '<S40>/Bit Shift' */
1494:HANcoder_E407_CAN_COMM_TEST.c **** 
1495:HANcoder_E407_CAN_COMM_TEST.c ****       /* Outputs for Atomic SubSystem: '<S40>/Bit Shift1' */
1496:HANcoder_E407_CAN_COMM_TEST.c ****       BitShift1(rtB.BitShift_e.y, &rtB.BitShift1_ew);
1497:HANcoder_E407_CAN_COMM_TEST.c **** 
1498:HANcoder_E407_CAN_COMM_TEST.c ****       /* End of Outputs for SubSystem: '<S40>/Bit Shift1' */
1499:HANcoder_E407_CAN_COMM_TEST.c **** 
1500:HANcoder_E407_CAN_COMM_TEST.c ****       /* Sum: '<S40>/Minus' incorporates:
1501:HANcoder_E407_CAN_COMM_TEST.c ****        *  DataTypeConversion: '<S40>/Cast1'
1502:HANcoder_E407_CAN_COMM_TEST.c ****        */
1503:HANcoder_E407_CAN_COMM_TEST.c ****       rtb_Power2 = Rx_coded6_CAN2 - rtB.BitShift1_ew.y;
1504:HANcoder_E407_CAN_COMM_TEST.c **** 
1505:HANcoder_E407_CAN_COMM_TEST.c ****       /* Math: '<S40>/Power1' incorporates:
1506:HANcoder_E407_CAN_COMM_TEST.c ****        *  Constant: '<S10>/Constant4'
1507:HANcoder_E407_CAN_COMM_TEST.c ****        *  Constant: '<S40>/Constant2'
1508:HANcoder_E407_CAN_COMM_TEST.c ****        */
1509:HANcoder_E407_CAN_COMM_TEST.c ****       if ((2.0 < 0.0) && (precision_CAN2 > rtb_Minus)) {
1510:HANcoder_E407_CAN_COMM_TEST.c ****         rtb_Switch2 = -pow(-2.0, precision_CAN2);
1511:HANcoder_E407_CAN_COMM_TEST.c ****       } else {
1512:HANcoder_E407_CAN_COMM_TEST.c ****         rtb_Switch2 = pow(2.0, precision_CAN2);
1513:HANcoder_E407_CAN_COMM_TEST.c ****       }
1514:HANcoder_E407_CAN_COMM_TEST.c **** 
1515:HANcoder_E407_CAN_COMM_TEST.c ****       /* Product: '<S40>/Divide' */
1516:HANcoder_E407_CAN_COMM_TEST.c ****       rtb_Fix = rtb_Power2 / rtb_Switch2;
1517:HANcoder_E407_CAN_COMM_TEST.c **** 
1518:HANcoder_E407_CAN_COMM_TEST.c ****       /* Rounding: '<S40>/Fix1' */
1519:HANcoder_E407_CAN_COMM_TEST.c ****       if (rtb_Fix < 0.0) {
1520:HANcoder_E407_CAN_COMM_TEST.c ****         rtb_Fix = ceil(rtb_Fix);
1521:HANcoder_E407_CAN_COMM_TEST.c ****       } else {
1522:HANcoder_E407_CAN_COMM_TEST.c ****         rtb_Fix = floor(rtb_Fix);
1523:HANcoder_E407_CAN_COMM_TEST.c ****       }
1524:HANcoder_E407_CAN_COMM_TEST.c **** 
1525:HANcoder_E407_CAN_COMM_TEST.c ****       /* End of Rounding: '<S40>/Fix1' */
1526:HANcoder_E407_CAN_COMM_TEST.c **** 
1527:HANcoder_E407_CAN_COMM_TEST.c ****       /* Sum: '<S40>/Minus1' incorporates:
1528:HANcoder_E407_CAN_COMM_TEST.c ****        *  Product: '<S40>/Multiply1'
1529:HANcoder_E407_CAN_COMM_TEST.c ****        */
1530:HANcoder_E407_CAN_COMM_TEST.c ****       rtb_Power2 -= rtb_Fix * rtb_Switch2;
1531:HANcoder_E407_CAN_COMM_TEST.c **** 
1532:HANcoder_E407_CAN_COMM_TEST.c ****       /* Math: '<S40>/Power' incorporates:
1533:HANcoder_E407_CAN_COMM_TEST.c ****        *  Constant: '<S40>/Constant1'
1534:HANcoder_E407_CAN_COMM_TEST.c ****        */
1535:HANcoder_E407_CAN_COMM_TEST.c ****       if ((2.0 < 0.0) && (rtb_Fix1 > floor(rtb_Fix1))) {
1536:HANcoder_E407_CAN_COMM_TEST.c ****         rtb_Switch2 = -pow(-2.0, rtb_Fix1);
1537:HANcoder_E407_CAN_COMM_TEST.c ****       } else {
1538:HANcoder_E407_CAN_COMM_TEST.c ****         rtb_Switch2 = pow(2.0, rtb_Fix1);
1539:HANcoder_E407_CAN_COMM_TEST.c ****       }
1540:HANcoder_E407_CAN_COMM_TEST.c **** 
1541:HANcoder_E407_CAN_COMM_TEST.c ****       /* End of Math: '<S40>/Power' */
1542:HANcoder_E407_CAN_COMM_TEST.c **** 
1543:HANcoder_E407_CAN_COMM_TEST.c ****       /* Switch: '<S40>/Switch' incorporates:
1544:HANcoder_E407_CAN_COMM_TEST.c ****        *  Gain: '<S40>/Gain1'
1545:HANcoder_E407_CAN_COMM_TEST.c ****        *  Product: '<S40>/Multiply'
1546:HANcoder_E407_CAN_COMM_TEST.c ****        *  Sum: '<S40>/Minus2'
1547:HANcoder_E407_CAN_COMM_TEST.c ****        */
1548:HANcoder_E407_CAN_COMM_TEST.c ****       if (rtB.BitShift_e.y > ((uint8_T)0U)) {
1549:HANcoder_E407_CAN_COMM_TEST.c ****         Rx_Buffer_6_CAN2 = (rtb_Power2 * rtb_Switch2 + rtb_Fix) * (-1.0);
1550:HANcoder_E407_CAN_COMM_TEST.c ****       } else {
1551:HANcoder_E407_CAN_COMM_TEST.c ****         Rx_Buffer_6_CAN2 = rtb_Power2 * rtb_Switch2 + rtb_Fix;
1552:HANcoder_E407_CAN_COMM_TEST.c ****       }
1553:HANcoder_E407_CAN_COMM_TEST.c **** 
1554:HANcoder_E407_CAN_COMM_TEST.c ****       /* End of Switch: '<S40>/Switch' */
1555:HANcoder_E407_CAN_COMM_TEST.c ****       Rx_ID_CAN2_s = Rx_ID_CAN2;
1556:HANcoder_E407_CAN_COMM_TEST.c ****       Rx_ID_CAN1_s = Rx_ID_CAN1;
1557:HANcoder_E407_CAN_COMM_TEST.c ****     } else {
1558:HANcoder_E407_CAN_COMM_TEST.c ****       if (rtDWork.RxCAN_MODE) {
1559:HANcoder_E407_CAN_COMM_TEST.c ****         rtDWork.RxCAN_MODE = false;
1560:HANcoder_E407_CAN_COMM_TEST.c ****       }
1561:HANcoder_E407_CAN_COMM_TEST.c ****     }
1562:HANcoder_E407_CAN_COMM_TEST.c **** 
1563:HANcoder_E407_CAN_COMM_TEST.c ****     /* End of Logic: '<S1>/AND1' */
1564:HANcoder_E407_CAN_COMM_TEST.c ****     /* End of Outputs for SubSystem: '<S1>/Rx CAN' */
1565:HANcoder_E407_CAN_COMM_TEST.c **** 
1566:HANcoder_E407_CAN_COMM_TEST.c ****     /* M-S-Function: '<S6>/Level-2 M-file S-Function' */
1567:HANcoder_E407_CAN_COMM_TEST.c ****     /* read from digital input */
1568:HANcoder_E407_CAN_COMM_TEST.c ****     sender_id = DiginGet(DIGIN_PORTE_PIN2);
1569:HANcoder_E407_CAN_COMM_TEST.c **** 
1570:HANcoder_E407_CAN_COMM_TEST.c ****     /* Outputs for Enabled SubSystem: '<S1>/Tx CAN' incorporates:
1571:HANcoder_E407_CAN_COMM_TEST.c ****      *  EnablePort: '<S12>/Enable'
1572:HANcoder_E407_CAN_COMM_TEST.c ****      */
1573:HANcoder_E407_CAN_COMM_TEST.c ****     /* Logic: '<S1>/AND3' */
1574:HANcoder_E407_CAN_COMM_TEST.c ****     if (WKUP_button && sender_id) {
1575:HANcoder_E407_CAN_COMM_TEST.c ****       if (!rtDWork.TxCAN_MODE) {
1576:HANcoder_E407_CAN_COMM_TEST.c ****         rtDWork.TxCAN_MODE = true;
1577:HANcoder_E407_CAN_COMM_TEST.c ****       }
1578:HANcoder_E407_CAN_COMM_TEST.c **** 
1579:HANcoder_E407_CAN_COMM_TEST.c ****       /* Switch: '<S112>/Switch2' incorporates:
1580:HANcoder_E407_CAN_COMM_TEST.c ****        *  Constant: '<S12>/Constant2'
1581:HANcoder_E407_CAN_COMM_TEST.c ****        *  Constant: '<S12>/Constant3'
1582:HANcoder_E407_CAN_COMM_TEST.c ****        *  Constant: '<S12>/magnitude4'
1583:HANcoder_E407_CAN_COMM_TEST.c ****        *  RelationalOperator: '<S112>/LessThanOrEqual1'
1584:HANcoder_E407_CAN_COMM_TEST.c ****        *  RelationalOperator: '<S112>/LessThanOrEqual2'
1585:HANcoder_E407_CAN_COMM_TEST.c ****        *  Switch: '<S112>/Switch1'
1586:HANcoder_E407_CAN_COMM_TEST.c ****        */
1587:HANcoder_E407_CAN_COMM_TEST.c ****       if (Tx_Max_CAN1 < Tx_Buffer_5_CAN1) {
1588:HANcoder_E407_CAN_COMM_TEST.c ****         /* Switch: '<S112>/Switch' */
1589:HANcoder_E407_CAN_COMM_TEST.c ****         rtb_Switch2 = Tx_Max_CAN1;
1590:HANcoder_E407_CAN_COMM_TEST.c ****       } else if (Tx_Buffer_5_CAN1 >= Tx_Min_CAN1) {
1591:HANcoder_E407_CAN_COMM_TEST.c ****         /* Switch: '<S112>/Switch1' */
1592:HANcoder_E407_CAN_COMM_TEST.c ****         rtb_Switch2 = Tx_Buffer_5_CAN1;
1593:HANcoder_E407_CAN_COMM_TEST.c ****       } else {
1594:HANcoder_E407_CAN_COMM_TEST.c ****         rtb_Switch2 = Tx_Min_CAN1;
1595:HANcoder_E407_CAN_COMM_TEST.c ****       }
1596:HANcoder_E407_CAN_COMM_TEST.c **** 
1597:HANcoder_E407_CAN_COMM_TEST.c ****       /* End of Switch: '<S112>/Switch2' */
1598:HANcoder_E407_CAN_COMM_TEST.c **** 
1599:HANcoder_E407_CAN_COMM_TEST.c ****       /* Abs: '<S112>/Abs' */
1600:HANcoder_E407_CAN_COMM_TEST.c ****       rtb_Fix1 = fabs(rtb_Switch2);
1601:HANcoder_E407_CAN_COMM_TEST.c **** 
1602:HANcoder_E407_CAN_COMM_TEST.c ****       /* Rounding: '<S112>/Fix' */
1603:HANcoder_E407_CAN_COMM_TEST.c ****       rtb_Fix = floor(rtb_Fix1);
1604:HANcoder_E407_CAN_COMM_TEST.c **** 
1605:HANcoder_E407_CAN_COMM_TEST.c ****       /* Sum: '<S112>/Minus' */
1606:HANcoder_E407_CAN_COMM_TEST.c ****       rtb_Minus = rtb_Fix1 - rtb_Fix;
1607:HANcoder_E407_CAN_COMM_TEST.c **** 
1608:HANcoder_E407_CAN_COMM_TEST.c ****       /* Sum: '<S112>/Minus1' incorporates:
1609:HANcoder_E407_CAN_COMM_TEST.c ****        *  Constant: '<S112>/Constant3'
1610:HANcoder_E407_CAN_COMM_TEST.c ****        *  Constant: '<S12>/Constant4'
1611:HANcoder_E407_CAN_COMM_TEST.c ****        *  Sum: '<S120>/Minus1'
1612:HANcoder_E407_CAN_COMM_TEST.c ****        *  Sum: '<S121>/Minus1'
1613:HANcoder_E407_CAN_COMM_TEST.c ****        *  Sum: '<S122>/Minus1'
1614:HANcoder_E407_CAN_COMM_TEST.c ****        *  Sum: '<S123>/Minus1'
1615:HANcoder_E407_CAN_COMM_TEST.c ****        *  Sum: '<S124>/Minus1'
1616:HANcoder_E407_CAN_COMM_TEST.c ****        *  Sum: '<S125>/Minus1'
1617:HANcoder_E407_CAN_COMM_TEST.c ****        *  Sum: '<S126>/Minus1'
1618:HANcoder_E407_CAN_COMM_TEST.c ****        */
1619:HANcoder_E407_CAN_COMM_TEST.c ****       rtb_Fix1_tmp = 7.0 - precision_CAN1;
1620:HANcoder_E407_CAN_COMM_TEST.c **** 
1621:HANcoder_E407_CAN_COMM_TEST.c ****       /* Gain: '<S112>/Gain' incorporates:
1622:HANcoder_E407_CAN_COMM_TEST.c ****        *  Constant: '<S12>/Constant4'
1623:HANcoder_E407_CAN_COMM_TEST.c ****        */
1624:HANcoder_E407_CAN_COMM_TEST.c ****       rtb_Power2 = (-1.0) * precision_CAN1;
1625:HANcoder_E407_CAN_COMM_TEST.c **** 
1626:HANcoder_E407_CAN_COMM_TEST.c ****       /* Math: '<S112>/Power' incorporates:
1627:HANcoder_E407_CAN_COMM_TEST.c ****        *  Constant: '<S112>/Constant1'
1628:HANcoder_E407_CAN_COMM_TEST.c ****        *  Gain: '<S112>/Gain'
1629:HANcoder_E407_CAN_COMM_TEST.c ****        */
1630:HANcoder_E407_CAN_COMM_TEST.c ****       if ((2.0 < 0.0) && (rtb_Power2 > floor(rtb_Power2))) {
1631:HANcoder_E407_CAN_COMM_TEST.c ****         rtb_Power2 = -pow(-2.0, rtb_Power2);
1632:HANcoder_E407_CAN_COMM_TEST.c ****       } else {
1633:HANcoder_E407_CAN_COMM_TEST.c ****         rtb_Power2 = pow(2.0, rtb_Power2);
1634:HANcoder_E407_CAN_COMM_TEST.c ****       }
1635:HANcoder_E407_CAN_COMM_TEST.c **** 
1636:HANcoder_E407_CAN_COMM_TEST.c ****       /* End of Math: '<S112>/Power' */
1637:HANcoder_E407_CAN_COMM_TEST.c **** 
1638:HANcoder_E407_CAN_COMM_TEST.c ****       /* Math: '<S112>/Power2' incorporates:
1639:HANcoder_E407_CAN_COMM_TEST.c ****        *  Constant: '<S112>/Constant4'
1640:HANcoder_E407_CAN_COMM_TEST.c ****        *  Sum: '<S112>/Minus1'
1641:HANcoder_E407_CAN_COMM_TEST.c ****        */
1642:HANcoder_E407_CAN_COMM_TEST.c ****       if ((2.0 < 0.0) && (rtb_Fix1_tmp > floor(rtb_Fix1_tmp))) {
1643:HANcoder_E407_CAN_COMM_TEST.c ****         rtb_Fix1 = -pow(-2.0, rtb_Fix1_tmp);
1644:HANcoder_E407_CAN_COMM_TEST.c ****       } else {
1645:HANcoder_E407_CAN_COMM_TEST.c ****         rtb_Fix1 = pow(2.0, rtb_Fix1_tmp);
1646:HANcoder_E407_CAN_COMM_TEST.c ****       }
1647:HANcoder_E407_CAN_COMM_TEST.c **** 
1648:HANcoder_E407_CAN_COMM_TEST.c ****       /* End of Math: '<S112>/Power2' */
1649:HANcoder_E407_CAN_COMM_TEST.c **** 
1650:HANcoder_E407_CAN_COMM_TEST.c ****       /* Product: '<S112>/Divide' */
1651:HANcoder_E407_CAN_COMM_TEST.c ****       rtb_Power2 = rtb_Minus / rtb_Power2;
1652:HANcoder_E407_CAN_COMM_TEST.c **** 
1653:HANcoder_E407_CAN_COMM_TEST.c ****       /* Rounding: '<S112>/Fix1' */
1654:HANcoder_E407_CAN_COMM_TEST.c ****       if (rtb_Power2 < 0.0) {
1655:HANcoder_E407_CAN_COMM_TEST.c ****         rtb_Power2 = ceil(rtb_Power2);
1656:HANcoder_E407_CAN_COMM_TEST.c ****       } else {
1657:HANcoder_E407_CAN_COMM_TEST.c ****         rtb_Power2 = floor(rtb_Power2);
1658:HANcoder_E407_CAN_COMM_TEST.c ****       }
1659:HANcoder_E407_CAN_COMM_TEST.c **** 
1660:HANcoder_E407_CAN_COMM_TEST.c ****       /* End of Rounding: '<S112>/Fix1' */
1661:HANcoder_E407_CAN_COMM_TEST.c **** 
1662:HANcoder_E407_CAN_COMM_TEST.c ****       /* DataTypeConversion: '<S112>/Cast' incorporates:
1663:HANcoder_E407_CAN_COMM_TEST.c ****        *  Constant: '<S112>/Constant'
1664:HANcoder_E407_CAN_COMM_TEST.c ****        *  RelationalOperator: '<S112>/GreaterThan'
1665:HANcoder_E407_CAN_COMM_TEST.c ****        */
1666:HANcoder_E407_CAN_COMM_TEST.c ****       rtb_Cast = (uint8_T)(rtb_Switch2 < 0.0);
1667:HANcoder_E407_CAN_COMM_TEST.c **** 
1668:HANcoder_E407_CAN_COMM_TEST.c ****       /* Outputs for Atomic SubSystem: '<S112>/Bit Shift' */
1669:HANcoder_E407_CAN_COMM_TEST.c ****       BitShift1(rtb_Cast, &rtB.BitShift_fo);
1670:HANcoder_E407_CAN_COMM_TEST.c **** 
1671:HANcoder_E407_CAN_COMM_TEST.c ****       /* End of Outputs for SubSystem: '<S112>/Bit Shift' */
1672:HANcoder_E407_CAN_COMM_TEST.c **** 
1673:HANcoder_E407_CAN_COMM_TEST.c ****       /* Math: '<S112>/Power1' incorporates:
1674:HANcoder_E407_CAN_COMM_TEST.c ****        *  Constant: '<S112>/Constant2'
1675:HANcoder_E407_CAN_COMM_TEST.c ****        *  Constant: '<S12>/Constant4'
1676:HANcoder_E407_CAN_COMM_TEST.c ****        */
1677:HANcoder_E407_CAN_COMM_TEST.c ****       if ((2.0 < 0.0) && (precision_CAN1 > floor(precision_CAN1))) {
1678:HANcoder_E407_CAN_COMM_TEST.c ****         rtb_Minus = -pow(-2.0, precision_CAN1);
1679:HANcoder_E407_CAN_COMM_TEST.c ****       } else {
1680:HANcoder_E407_CAN_COMM_TEST.c ****         rtb_Minus = pow(2.0, precision_CAN1);
1681:HANcoder_E407_CAN_COMM_TEST.c ****       }
1682:HANcoder_E407_CAN_COMM_TEST.c **** 
1683:HANcoder_E407_CAN_COMM_TEST.c ****       /* End of Math: '<S112>/Power1' */
1684:HANcoder_E407_CAN_COMM_TEST.c **** 
1685:HANcoder_E407_CAN_COMM_TEST.c ****       /* Sum: '<S112>/Plus' incorporates:
1686:HANcoder_E407_CAN_COMM_TEST.c ****        *  DataTypeConversion: '<S112>/Cast1'
1687:HANcoder_E407_CAN_COMM_TEST.c ****        *  DataTypeConversion: '<S112>/Cast2'
1688:HANcoder_E407_CAN_COMM_TEST.c ****        *  Product: '<S112>/Multiply'
1689:HANcoder_E407_CAN_COMM_TEST.c ****        */
1690:HANcoder_E407_CAN_COMM_TEST.c ****       Tx_coded5_CAN1 = (uint8_T)((uint32_T)(uint8_T)((uint32_T)(uint8_T)(rtb_Fix
1691:HANcoder_E407_CAN_COMM_TEST.c ****         * rtb_Minus) + rtB.BitShift_fo.y) + (uint8_T)rtb_Power2);
1692:HANcoder_E407_CAN_COMM_TEST.c **** 
1693:HANcoder_E407_CAN_COMM_TEST.c ****       /* RelationalOperator: '<S112>/LessThanOrEqual' */
1694:HANcoder_E407_CAN_COMM_TEST.c ****       OF5_CAN1 = (rtb_Fix >= rtb_Fix1);
1695:HANcoder_E407_CAN_COMM_TEST.c **** 
1696:HANcoder_E407_CAN_COMM_TEST.c ****       /* Switch: '<S120>/Switch2' incorporates:
1697:HANcoder_E407_CAN_COMM_TEST.c ****        *  Constant: '<S12>/Constant2'
1698:HANcoder_E407_CAN_COMM_TEST.c ****        *  Constant: '<S12>/Constant3'
1699:HANcoder_E407_CAN_COMM_TEST.c ****        *  Constant: '<S12>/magnitude5'
1700:HANcoder_E407_CAN_COMM_TEST.c ****        *  RelationalOperator: '<S120>/LessThanOrEqual1'
1701:HANcoder_E407_CAN_COMM_TEST.c ****        *  RelationalOperator: '<S120>/LessThanOrEqual2'
1702:HANcoder_E407_CAN_COMM_TEST.c ****        *  Switch: '<S120>/Switch1'
1703:HANcoder_E407_CAN_COMM_TEST.c ****        */
1704:HANcoder_E407_CAN_COMM_TEST.c ****       if (Tx_Max_CAN1 < Tx_Buffer_6_CAN1) {
1705:HANcoder_E407_CAN_COMM_TEST.c ****         /* Switch: '<S120>/Switch' */
1706:HANcoder_E407_CAN_COMM_TEST.c ****         rtb_Switch2 = Tx_Max_CAN1;
1707:HANcoder_E407_CAN_COMM_TEST.c ****       } else if (Tx_Buffer_6_CAN1 >= Tx_Min_CAN1) {
1708:HANcoder_E407_CAN_COMM_TEST.c ****         /* Switch: '<S120>/Switch1' */
1709:HANcoder_E407_CAN_COMM_TEST.c ****         rtb_Switch2 = Tx_Buffer_6_CAN1;
1710:HANcoder_E407_CAN_COMM_TEST.c ****       } else {
1711:HANcoder_E407_CAN_COMM_TEST.c ****         rtb_Switch2 = Tx_Min_CAN1;
1712:HANcoder_E407_CAN_COMM_TEST.c ****       }
1713:HANcoder_E407_CAN_COMM_TEST.c **** 
1714:HANcoder_E407_CAN_COMM_TEST.c ****       /* End of Switch: '<S120>/Switch2' */
1715:HANcoder_E407_CAN_COMM_TEST.c **** 
1716:HANcoder_E407_CAN_COMM_TEST.c ****       /* Abs: '<S120>/Abs' */
1717:HANcoder_E407_CAN_COMM_TEST.c ****       rtb_Power2 = fabs(rtb_Switch2);
1718:HANcoder_E407_CAN_COMM_TEST.c **** 
1719:HANcoder_E407_CAN_COMM_TEST.c ****       /* Rounding: '<S120>/Fix' */
1720:HANcoder_E407_CAN_COMM_TEST.c ****       rtb_Fix = floor(rtb_Power2);
1721:HANcoder_E407_CAN_COMM_TEST.c **** 
1722:HANcoder_E407_CAN_COMM_TEST.c ****       /* Sum: '<S120>/Minus' */
1723:HANcoder_E407_CAN_COMM_TEST.c ****       rtb_Minus = rtb_Power2 - rtb_Fix;
1724:HANcoder_E407_CAN_COMM_TEST.c **** 
1725:HANcoder_E407_CAN_COMM_TEST.c ****       /* Gain: '<S120>/Gain' incorporates:
1726:HANcoder_E407_CAN_COMM_TEST.c ****        *  Constant: '<S12>/Constant4'
1727:HANcoder_E407_CAN_COMM_TEST.c ****        */
1728:HANcoder_E407_CAN_COMM_TEST.c ****       rtb_Fix1 = (-1.0) * precision_CAN1;
1729:HANcoder_E407_CAN_COMM_TEST.c **** 
1730:HANcoder_E407_CAN_COMM_TEST.c ****       /* Math: '<S120>/Power' incorporates:
1731:HANcoder_E407_CAN_COMM_TEST.c ****        *  Constant: '<S120>/Constant1'
1732:HANcoder_E407_CAN_COMM_TEST.c ****        *  Gain: '<S120>/Gain'
1733:HANcoder_E407_CAN_COMM_TEST.c ****        */
1734:HANcoder_E407_CAN_COMM_TEST.c ****       if ((2.0 < 0.0) && (rtb_Fix1 > floor(rtb_Fix1))) {
1735:HANcoder_E407_CAN_COMM_TEST.c ****         rtb_Fix1 = -pow(-2.0, rtb_Fix1);
1736:HANcoder_E407_CAN_COMM_TEST.c ****       } else {
1737:HANcoder_E407_CAN_COMM_TEST.c ****         rtb_Fix1 = pow(2.0, rtb_Fix1);
1738:HANcoder_E407_CAN_COMM_TEST.c ****       }
1739:HANcoder_E407_CAN_COMM_TEST.c **** 
1740:HANcoder_E407_CAN_COMM_TEST.c ****       /* End of Math: '<S120>/Power' */
1741:HANcoder_E407_CAN_COMM_TEST.c **** 
1742:HANcoder_E407_CAN_COMM_TEST.c ****       /* Math: '<S120>/Power2' incorporates:
1743:HANcoder_E407_CAN_COMM_TEST.c ****        *  Constant: '<S120>/Constant4'
1744:HANcoder_E407_CAN_COMM_TEST.c ****        */
1745:HANcoder_E407_CAN_COMM_TEST.c ****       if ((2.0 < 0.0) && (rtb_Fix1_tmp > floor(rtb_Fix1_tmp))) {
1746:HANcoder_E407_CAN_COMM_TEST.c ****         rtb_Power2 = -pow(-2.0, rtb_Fix1_tmp);
1747:HANcoder_E407_CAN_COMM_TEST.c ****       } else {
1748:HANcoder_E407_CAN_COMM_TEST.c ****         rtb_Power2 = pow(2.0, rtb_Fix1_tmp);
1749:HANcoder_E407_CAN_COMM_TEST.c ****       }
1750:HANcoder_E407_CAN_COMM_TEST.c **** 
1751:HANcoder_E407_CAN_COMM_TEST.c ****       /* End of Math: '<S120>/Power2' */
1752:HANcoder_E407_CAN_COMM_TEST.c **** 
1753:HANcoder_E407_CAN_COMM_TEST.c ****       /* Product: '<S120>/Divide' */
1754:HANcoder_E407_CAN_COMM_TEST.c ****       rtb_Fix1 = rtb_Minus / rtb_Fix1;
1755:HANcoder_E407_CAN_COMM_TEST.c **** 
1756:HANcoder_E407_CAN_COMM_TEST.c ****       /* Rounding: '<S120>/Fix1' */
1757:HANcoder_E407_CAN_COMM_TEST.c ****       if (rtb_Fix1 < 0.0) {
1758:HANcoder_E407_CAN_COMM_TEST.c ****         rtb_Fix1 = ceil(rtb_Fix1);
1759:HANcoder_E407_CAN_COMM_TEST.c ****       } else {
1760:HANcoder_E407_CAN_COMM_TEST.c ****         rtb_Fix1 = floor(rtb_Fix1);
1761:HANcoder_E407_CAN_COMM_TEST.c ****       }
1762:HANcoder_E407_CAN_COMM_TEST.c **** 
1763:HANcoder_E407_CAN_COMM_TEST.c ****       /* End of Rounding: '<S120>/Fix1' */
1764:HANcoder_E407_CAN_COMM_TEST.c **** 
1765:HANcoder_E407_CAN_COMM_TEST.c ****       /* DataTypeConversion: '<S120>/Cast' incorporates:
1766:HANcoder_E407_CAN_COMM_TEST.c ****        *  Constant: '<S120>/Constant'
1767:HANcoder_E407_CAN_COMM_TEST.c ****        *  RelationalOperator: '<S120>/GreaterThan'
1768:HANcoder_E407_CAN_COMM_TEST.c ****        */
1769:HANcoder_E407_CAN_COMM_TEST.c ****       rtb_Cast_hi = (uint8_T)(rtb_Switch2 < 0.0);
1770:HANcoder_E407_CAN_COMM_TEST.c **** 
1771:HANcoder_E407_CAN_COMM_TEST.c ****       /* Outputs for Atomic SubSystem: '<S120>/Bit Shift' */
1772:HANcoder_E407_CAN_COMM_TEST.c ****       BitShift1(rtb_Cast_hi, &rtB.BitShift_g1);
1773:HANcoder_E407_CAN_COMM_TEST.c **** 
1774:HANcoder_E407_CAN_COMM_TEST.c ****       /* End of Outputs for SubSystem: '<S120>/Bit Shift' */
1775:HANcoder_E407_CAN_COMM_TEST.c **** 
1776:HANcoder_E407_CAN_COMM_TEST.c ****       /* Math: '<S120>/Power1' incorporates:
1777:HANcoder_E407_CAN_COMM_TEST.c ****        *  Constant: '<S120>/Constant2'
1778:HANcoder_E407_CAN_COMM_TEST.c ****        *  Constant: '<S12>/Constant4'
1779:HANcoder_E407_CAN_COMM_TEST.c ****        */
1780:HANcoder_E407_CAN_COMM_TEST.c ****       if ((2.0 < 0.0) && (precision_CAN1 > floor(precision_CAN1))) {
1781:HANcoder_E407_CAN_COMM_TEST.c ****         rtb_Minus = -pow(-2.0, precision_CAN1);
1782:HANcoder_E407_CAN_COMM_TEST.c ****       } else {
1783:HANcoder_E407_CAN_COMM_TEST.c ****         rtb_Minus = pow(2.0, precision_CAN1);
1784:HANcoder_E407_CAN_COMM_TEST.c ****       }
1785:HANcoder_E407_CAN_COMM_TEST.c **** 
1786:HANcoder_E407_CAN_COMM_TEST.c ****       /* End of Math: '<S120>/Power1' */
1787:HANcoder_E407_CAN_COMM_TEST.c **** 
1788:HANcoder_E407_CAN_COMM_TEST.c ****       /* Sum: '<S120>/Plus' incorporates:
1789:HANcoder_E407_CAN_COMM_TEST.c ****        *  DataTypeConversion: '<S120>/Cast1'
1790:HANcoder_E407_CAN_COMM_TEST.c ****        *  DataTypeConversion: '<S120>/Cast2'
1791:HANcoder_E407_CAN_COMM_TEST.c ****        *  Product: '<S120>/Multiply'
1792:HANcoder_E407_CAN_COMM_TEST.c ****        */
1793:HANcoder_E407_CAN_COMM_TEST.c ****       Tx_coded6_CAN1 = (uint8_T)((uint32_T)(uint8_T)((uint32_T)(uint8_T)(rtb_Fix
1794:HANcoder_E407_CAN_COMM_TEST.c ****         * rtb_Minus) + rtB.BitShift_g1.y) + (uint8_T)rtb_Fix1);
1795:HANcoder_E407_CAN_COMM_TEST.c **** 
1796:HANcoder_E407_CAN_COMM_TEST.c ****       /* RelationalOperator: '<S120>/LessThanOrEqual' */
1797:HANcoder_E407_CAN_COMM_TEST.c ****       OF6_CAN1 = (rtb_Fix >= rtb_Power2);
1798:HANcoder_E407_CAN_COMM_TEST.c **** 
1799:HANcoder_E407_CAN_COMM_TEST.c ****       /* Switch: '<S121>/Switch2' incorporates:
1800:HANcoder_E407_CAN_COMM_TEST.c ****        *  Constant: '<S12>/Constant2'
1801:HANcoder_E407_CAN_COMM_TEST.c ****        *  Constant: '<S12>/Constant3'
1802:HANcoder_E407_CAN_COMM_TEST.c ****        *  Constant: '<S12>/magnitude3'
1803:HANcoder_E407_CAN_COMM_TEST.c ****        *  RelationalOperator: '<S121>/LessThanOrEqual1'
1804:HANcoder_E407_CAN_COMM_TEST.c ****        *  RelationalOperator: '<S121>/LessThanOrEqual2'
1805:HANcoder_E407_CAN_COMM_TEST.c ****        *  Switch: '<S121>/Switch1'
1806:HANcoder_E407_CAN_COMM_TEST.c ****        */
1807:HANcoder_E407_CAN_COMM_TEST.c ****       if (Tx_Max_CAN1 < Tx_Buffer_4_CAN1) {
1808:HANcoder_E407_CAN_COMM_TEST.c ****         /* Switch: '<S121>/Switch' */
1809:HANcoder_E407_CAN_COMM_TEST.c ****         rtb_Switch2 = Tx_Max_CAN1;
1810:HANcoder_E407_CAN_COMM_TEST.c ****       } else if (Tx_Buffer_4_CAN1 >= Tx_Min_CAN1) {
1811:HANcoder_E407_CAN_COMM_TEST.c ****         /* Switch: '<S121>/Switch1' */
1812:HANcoder_E407_CAN_COMM_TEST.c ****         rtb_Switch2 = Tx_Buffer_4_CAN1;
1813:HANcoder_E407_CAN_COMM_TEST.c ****       } else {
1814:HANcoder_E407_CAN_COMM_TEST.c ****         rtb_Switch2 = Tx_Min_CAN1;
1815:HANcoder_E407_CAN_COMM_TEST.c ****       }
1816:HANcoder_E407_CAN_COMM_TEST.c **** 
1817:HANcoder_E407_CAN_COMM_TEST.c ****       /* End of Switch: '<S121>/Switch2' */
1818:HANcoder_E407_CAN_COMM_TEST.c **** 
1819:HANcoder_E407_CAN_COMM_TEST.c ****       /* Abs: '<S121>/Abs' */
1820:HANcoder_E407_CAN_COMM_TEST.c ****       rtb_Power2 = fabs(rtb_Switch2);
1821:HANcoder_E407_CAN_COMM_TEST.c **** 
1822:HANcoder_E407_CAN_COMM_TEST.c ****       /* Rounding: '<S121>/Fix' */
1823:HANcoder_E407_CAN_COMM_TEST.c ****       rtb_Fix = floor(rtb_Power2);
1824:HANcoder_E407_CAN_COMM_TEST.c **** 
1825:HANcoder_E407_CAN_COMM_TEST.c ****       /* Sum: '<S121>/Minus' */
1826:HANcoder_E407_CAN_COMM_TEST.c ****       rtb_Minus = rtb_Power2 - rtb_Fix;
1827:HANcoder_E407_CAN_COMM_TEST.c **** 
1828:HANcoder_E407_CAN_COMM_TEST.c ****       /* Gain: '<S121>/Gain' incorporates:
1829:HANcoder_E407_CAN_COMM_TEST.c ****        *  Constant: '<S12>/Constant4'
1830:HANcoder_E407_CAN_COMM_TEST.c ****        */
1831:HANcoder_E407_CAN_COMM_TEST.c ****       rtb_Fix1 = (-1.0) * precision_CAN1;
1832:HANcoder_E407_CAN_COMM_TEST.c **** 
1833:HANcoder_E407_CAN_COMM_TEST.c ****       /* Math: '<S121>/Power' incorporates:
1834:HANcoder_E407_CAN_COMM_TEST.c ****        *  Constant: '<S121>/Constant1'
1835:HANcoder_E407_CAN_COMM_TEST.c ****        *  Gain: '<S121>/Gain'
1836:HANcoder_E407_CAN_COMM_TEST.c ****        */
1837:HANcoder_E407_CAN_COMM_TEST.c ****       if ((2.0 < 0.0) && (rtb_Fix1 > floor(rtb_Fix1))) {
1838:HANcoder_E407_CAN_COMM_TEST.c ****         rtb_Fix1 = -pow(-2.0, rtb_Fix1);
1839:HANcoder_E407_CAN_COMM_TEST.c ****       } else {
1840:HANcoder_E407_CAN_COMM_TEST.c ****         rtb_Fix1 = pow(2.0, rtb_Fix1);
1841:HANcoder_E407_CAN_COMM_TEST.c ****       }
1842:HANcoder_E407_CAN_COMM_TEST.c **** 
1843:HANcoder_E407_CAN_COMM_TEST.c ****       /* End of Math: '<S121>/Power' */
1844:HANcoder_E407_CAN_COMM_TEST.c **** 
1845:HANcoder_E407_CAN_COMM_TEST.c ****       /* Math: '<S121>/Power2' incorporates:
1846:HANcoder_E407_CAN_COMM_TEST.c ****        *  Constant: '<S121>/Constant4'
1847:HANcoder_E407_CAN_COMM_TEST.c ****        */
1848:HANcoder_E407_CAN_COMM_TEST.c ****       if ((2.0 < 0.0) && (rtb_Fix1_tmp > floor(rtb_Fix1_tmp))) {
1849:HANcoder_E407_CAN_COMM_TEST.c ****         rtb_Power2 = -pow(-2.0, rtb_Fix1_tmp);
1850:HANcoder_E407_CAN_COMM_TEST.c ****       } else {
1851:HANcoder_E407_CAN_COMM_TEST.c ****         rtb_Power2 = pow(2.0, rtb_Fix1_tmp);
1852:HANcoder_E407_CAN_COMM_TEST.c ****       }
1853:HANcoder_E407_CAN_COMM_TEST.c **** 
1854:HANcoder_E407_CAN_COMM_TEST.c ****       /* End of Math: '<S121>/Power2' */
1855:HANcoder_E407_CAN_COMM_TEST.c **** 
1856:HANcoder_E407_CAN_COMM_TEST.c ****       /* Product: '<S121>/Divide' */
1857:HANcoder_E407_CAN_COMM_TEST.c ****       rtb_Fix1 = rtb_Minus / rtb_Fix1;
1858:HANcoder_E407_CAN_COMM_TEST.c **** 
1859:HANcoder_E407_CAN_COMM_TEST.c ****       /* Rounding: '<S121>/Fix1' */
1860:HANcoder_E407_CAN_COMM_TEST.c ****       if (rtb_Fix1 < 0.0) {
1861:HANcoder_E407_CAN_COMM_TEST.c ****         rtb_Fix1 = ceil(rtb_Fix1);
1862:HANcoder_E407_CAN_COMM_TEST.c ****       } else {
1863:HANcoder_E407_CAN_COMM_TEST.c ****         rtb_Fix1 = floor(rtb_Fix1);
1864:HANcoder_E407_CAN_COMM_TEST.c ****       }
1865:HANcoder_E407_CAN_COMM_TEST.c **** 
1866:HANcoder_E407_CAN_COMM_TEST.c ****       /* End of Rounding: '<S121>/Fix1' */
1867:HANcoder_E407_CAN_COMM_TEST.c **** 
1868:HANcoder_E407_CAN_COMM_TEST.c ****       /* DataTypeConversion: '<S121>/Cast' incorporates:
1869:HANcoder_E407_CAN_COMM_TEST.c ****        *  Constant: '<S121>/Constant'
1870:HANcoder_E407_CAN_COMM_TEST.c ****        *  RelationalOperator: '<S121>/GreaterThan'
1871:HANcoder_E407_CAN_COMM_TEST.c ****        */
1872:HANcoder_E407_CAN_COMM_TEST.c ****       rtb_Cast_lf = (uint8_T)(rtb_Switch2 < 0.0);
1873:HANcoder_E407_CAN_COMM_TEST.c **** 
1874:HANcoder_E407_CAN_COMM_TEST.c ****       /* Outputs for Atomic SubSystem: '<S121>/Bit Shift' */
1875:HANcoder_E407_CAN_COMM_TEST.c ****       BitShift1(rtb_Cast_lf, &rtB.BitShift_am);
1876:HANcoder_E407_CAN_COMM_TEST.c **** 
1877:HANcoder_E407_CAN_COMM_TEST.c ****       /* End of Outputs for SubSystem: '<S121>/Bit Shift' */
1878:HANcoder_E407_CAN_COMM_TEST.c **** 
1879:HANcoder_E407_CAN_COMM_TEST.c ****       /* Math: '<S121>/Power1' incorporates:
1880:HANcoder_E407_CAN_COMM_TEST.c ****        *  Constant: '<S121>/Constant2'
1881:HANcoder_E407_CAN_COMM_TEST.c ****        *  Constant: '<S12>/Constant4'
1882:HANcoder_E407_CAN_COMM_TEST.c ****        */
1883:HANcoder_E407_CAN_COMM_TEST.c ****       if ((2.0 < 0.0) && (precision_CAN1 > floor(precision_CAN1))) {
1884:HANcoder_E407_CAN_COMM_TEST.c ****         rtb_Minus = -pow(-2.0, precision_CAN1);
1885:HANcoder_E407_CAN_COMM_TEST.c ****       } else {
1886:HANcoder_E407_CAN_COMM_TEST.c ****         rtb_Minus = pow(2.0, precision_CAN1);
1887:HANcoder_E407_CAN_COMM_TEST.c ****       }
1888:HANcoder_E407_CAN_COMM_TEST.c **** 
1889:HANcoder_E407_CAN_COMM_TEST.c ****       /* End of Math: '<S121>/Power1' */
1890:HANcoder_E407_CAN_COMM_TEST.c **** 
1891:HANcoder_E407_CAN_COMM_TEST.c ****       /* Sum: '<S121>/Plus' incorporates:
1892:HANcoder_E407_CAN_COMM_TEST.c ****        *  DataTypeConversion: '<S121>/Cast1'
1893:HANcoder_E407_CAN_COMM_TEST.c ****        *  DataTypeConversion: '<S121>/Cast2'
1894:HANcoder_E407_CAN_COMM_TEST.c ****        *  Product: '<S121>/Multiply'
1895:HANcoder_E407_CAN_COMM_TEST.c ****        */
1896:HANcoder_E407_CAN_COMM_TEST.c ****       Tx_coded4_CAN1 = (uint8_T)((uint32_T)(uint8_T)((uint32_T)(uint8_T)(rtb_Fix
1897:HANcoder_E407_CAN_COMM_TEST.c ****         * rtb_Minus) + rtB.BitShift_am.y) + (uint8_T)rtb_Fix1);
1898:HANcoder_E407_CAN_COMM_TEST.c **** 
1899:HANcoder_E407_CAN_COMM_TEST.c ****       /* RelationalOperator: '<S121>/LessThanOrEqual' */
1900:HANcoder_E407_CAN_COMM_TEST.c ****       OF4_CAN1 = (rtb_Fix >= rtb_Power2);
1901:HANcoder_E407_CAN_COMM_TEST.c **** 
1902:HANcoder_E407_CAN_COMM_TEST.c ****       /* Switch: '<S122>/Switch2' incorporates:
1903:HANcoder_E407_CAN_COMM_TEST.c ****        *  Constant: '<S12>/Constant2'
1904:HANcoder_E407_CAN_COMM_TEST.c ****        *  Constant: '<S12>/Constant3'
1905:HANcoder_E407_CAN_COMM_TEST.c ****        *  Constant: '<S12>/magnitude6'
1906:HANcoder_E407_CAN_COMM_TEST.c ****        *  RelationalOperator: '<S122>/LessThanOrEqual1'
1907:HANcoder_E407_CAN_COMM_TEST.c ****        *  RelationalOperator: '<S122>/LessThanOrEqual2'
1908:HANcoder_E407_CAN_COMM_TEST.c ****        *  Switch: '<S122>/Switch1'
1909:HANcoder_E407_CAN_COMM_TEST.c ****        */
1910:HANcoder_E407_CAN_COMM_TEST.c ****       if (Tx_Max_CAN1 < Tx_Buffer_7_CAN1) {
1911:HANcoder_E407_CAN_COMM_TEST.c ****         /* Switch: '<S122>/Switch' */
1912:HANcoder_E407_CAN_COMM_TEST.c ****         rtb_Switch2 = Tx_Max_CAN1;
1913:HANcoder_E407_CAN_COMM_TEST.c ****       } else if (Tx_Buffer_7_CAN1 >= Tx_Min_CAN1) {
1914:HANcoder_E407_CAN_COMM_TEST.c ****         /* Switch: '<S122>/Switch1' */
1915:HANcoder_E407_CAN_COMM_TEST.c ****         rtb_Switch2 = Tx_Buffer_7_CAN1;
1916:HANcoder_E407_CAN_COMM_TEST.c ****       } else {
1917:HANcoder_E407_CAN_COMM_TEST.c ****         rtb_Switch2 = Tx_Min_CAN1;
1918:HANcoder_E407_CAN_COMM_TEST.c ****       }
1919:HANcoder_E407_CAN_COMM_TEST.c **** 
1920:HANcoder_E407_CAN_COMM_TEST.c ****       /* End of Switch: '<S122>/Switch2' */
1921:HANcoder_E407_CAN_COMM_TEST.c **** 
1922:HANcoder_E407_CAN_COMM_TEST.c ****       /* Abs: '<S122>/Abs' */
1923:HANcoder_E407_CAN_COMM_TEST.c ****       rtb_Power2 = fabs(rtb_Switch2);
1924:HANcoder_E407_CAN_COMM_TEST.c **** 
1925:HANcoder_E407_CAN_COMM_TEST.c ****       /* Rounding: '<S122>/Fix' */
1926:HANcoder_E407_CAN_COMM_TEST.c ****       rtb_Fix = floor(rtb_Power2);
1927:HANcoder_E407_CAN_COMM_TEST.c **** 
1928:HANcoder_E407_CAN_COMM_TEST.c ****       /* Sum: '<S122>/Minus' */
1929:HANcoder_E407_CAN_COMM_TEST.c ****       rtb_Minus = rtb_Power2 - rtb_Fix;
1930:HANcoder_E407_CAN_COMM_TEST.c **** 
1931:HANcoder_E407_CAN_COMM_TEST.c ****       /* Gain: '<S122>/Gain' incorporates:
1932:HANcoder_E407_CAN_COMM_TEST.c ****        *  Constant: '<S12>/Constant4'
1933:HANcoder_E407_CAN_COMM_TEST.c ****        */
1934:HANcoder_E407_CAN_COMM_TEST.c ****       rtb_Fix1 = (-1.0) * precision_CAN1;
1935:HANcoder_E407_CAN_COMM_TEST.c **** 
1936:HANcoder_E407_CAN_COMM_TEST.c ****       /* Math: '<S122>/Power' incorporates:
1937:HANcoder_E407_CAN_COMM_TEST.c ****        *  Constant: '<S122>/Constant1'
1938:HANcoder_E407_CAN_COMM_TEST.c ****        *  Gain: '<S122>/Gain'
1939:HANcoder_E407_CAN_COMM_TEST.c ****        */
1940:HANcoder_E407_CAN_COMM_TEST.c ****       if ((2.0 < 0.0) && (rtb_Fix1 > floor(rtb_Fix1))) {
1941:HANcoder_E407_CAN_COMM_TEST.c ****         rtb_Fix1 = -pow(-2.0, rtb_Fix1);
1942:HANcoder_E407_CAN_COMM_TEST.c ****       } else {
1943:HANcoder_E407_CAN_COMM_TEST.c ****         rtb_Fix1 = pow(2.0, rtb_Fix1);
1944:HANcoder_E407_CAN_COMM_TEST.c ****       }
1945:HANcoder_E407_CAN_COMM_TEST.c **** 
1946:HANcoder_E407_CAN_COMM_TEST.c ****       /* End of Math: '<S122>/Power' */
1947:HANcoder_E407_CAN_COMM_TEST.c **** 
1948:HANcoder_E407_CAN_COMM_TEST.c ****       /* Math: '<S122>/Power2' incorporates:
1949:HANcoder_E407_CAN_COMM_TEST.c ****        *  Constant: '<S122>/Constant4'
1950:HANcoder_E407_CAN_COMM_TEST.c ****        */
1951:HANcoder_E407_CAN_COMM_TEST.c ****       if ((2.0 < 0.0) && (rtb_Fix1_tmp > floor(rtb_Fix1_tmp))) {
1952:HANcoder_E407_CAN_COMM_TEST.c ****         rtb_Power2 = -pow(-2.0, rtb_Fix1_tmp);
1953:HANcoder_E407_CAN_COMM_TEST.c ****       } else {
1954:HANcoder_E407_CAN_COMM_TEST.c ****         rtb_Power2 = pow(2.0, rtb_Fix1_tmp);
1955:HANcoder_E407_CAN_COMM_TEST.c ****       }
1956:HANcoder_E407_CAN_COMM_TEST.c **** 
1957:HANcoder_E407_CAN_COMM_TEST.c ****       /* End of Math: '<S122>/Power2' */
1958:HANcoder_E407_CAN_COMM_TEST.c **** 
1959:HANcoder_E407_CAN_COMM_TEST.c ****       /* Product: '<S122>/Divide' */
1960:HANcoder_E407_CAN_COMM_TEST.c ****       rtb_Fix1 = rtb_Minus / rtb_Fix1;
1961:HANcoder_E407_CAN_COMM_TEST.c **** 
1962:HANcoder_E407_CAN_COMM_TEST.c ****       /* Rounding: '<S122>/Fix1' */
1963:HANcoder_E407_CAN_COMM_TEST.c ****       if (rtb_Fix1 < 0.0) {
1964:HANcoder_E407_CAN_COMM_TEST.c ****         rtb_Fix1 = ceil(rtb_Fix1);
1965:HANcoder_E407_CAN_COMM_TEST.c ****       } else {
1966:HANcoder_E407_CAN_COMM_TEST.c ****         rtb_Fix1 = floor(rtb_Fix1);
1967:HANcoder_E407_CAN_COMM_TEST.c ****       }
1968:HANcoder_E407_CAN_COMM_TEST.c **** 
1969:HANcoder_E407_CAN_COMM_TEST.c ****       /* End of Rounding: '<S122>/Fix1' */
1970:HANcoder_E407_CAN_COMM_TEST.c **** 
1971:HANcoder_E407_CAN_COMM_TEST.c ****       /* DataTypeConversion: '<S122>/Cast' incorporates:
1972:HANcoder_E407_CAN_COMM_TEST.c ****        *  Constant: '<S122>/Constant'
1973:HANcoder_E407_CAN_COMM_TEST.c ****        *  RelationalOperator: '<S122>/GreaterThan'
1974:HANcoder_E407_CAN_COMM_TEST.c ****        */
1975:HANcoder_E407_CAN_COMM_TEST.c ****       rtb_Cast_n = (uint8_T)(rtb_Switch2 < 0.0);
1976:HANcoder_E407_CAN_COMM_TEST.c **** 
1977:HANcoder_E407_CAN_COMM_TEST.c ****       /* Outputs for Atomic SubSystem: '<S122>/Bit Shift' */
1978:HANcoder_E407_CAN_COMM_TEST.c ****       BitShift1(rtb_Cast_n, &rtB.BitShift_ee);
1979:HANcoder_E407_CAN_COMM_TEST.c **** 
1980:HANcoder_E407_CAN_COMM_TEST.c ****       /* End of Outputs for SubSystem: '<S122>/Bit Shift' */
1981:HANcoder_E407_CAN_COMM_TEST.c **** 
1982:HANcoder_E407_CAN_COMM_TEST.c ****       /* Math: '<S122>/Power1' incorporates:
1983:HANcoder_E407_CAN_COMM_TEST.c ****        *  Constant: '<S122>/Constant2'
1984:HANcoder_E407_CAN_COMM_TEST.c ****        *  Constant: '<S12>/Constant4'
1985:HANcoder_E407_CAN_COMM_TEST.c ****        */
1986:HANcoder_E407_CAN_COMM_TEST.c ****       if ((2.0 < 0.0) && (precision_CAN1 > floor(precision_CAN1))) {
1987:HANcoder_E407_CAN_COMM_TEST.c ****         rtb_Minus = -pow(-2.0, precision_CAN1);
1988:HANcoder_E407_CAN_COMM_TEST.c ****       } else {
1989:HANcoder_E407_CAN_COMM_TEST.c ****         rtb_Minus = pow(2.0, precision_CAN1);
1990:HANcoder_E407_CAN_COMM_TEST.c ****       }
1991:HANcoder_E407_CAN_COMM_TEST.c **** 
1992:HANcoder_E407_CAN_COMM_TEST.c ****       /* End of Math: '<S122>/Power1' */
1993:HANcoder_E407_CAN_COMM_TEST.c **** 
1994:HANcoder_E407_CAN_COMM_TEST.c ****       /* Sum: '<S122>/Plus' incorporates:
1995:HANcoder_E407_CAN_COMM_TEST.c ****        *  DataTypeConversion: '<S122>/Cast1'
1996:HANcoder_E407_CAN_COMM_TEST.c ****        *  DataTypeConversion: '<S122>/Cast2'
1997:HANcoder_E407_CAN_COMM_TEST.c ****        *  Product: '<S122>/Multiply'
1998:HANcoder_E407_CAN_COMM_TEST.c ****        */
1999:HANcoder_E407_CAN_COMM_TEST.c ****       Tx_coded7_CAN1 = (uint8_T)((uint32_T)(uint8_T)((uint32_T)(uint8_T)(rtb_Fix
2000:HANcoder_E407_CAN_COMM_TEST.c ****         * rtb_Minus) + rtB.BitShift_ee.y) + (uint8_T)rtb_Fix1);
2001:HANcoder_E407_CAN_COMM_TEST.c **** 
2002:HANcoder_E407_CAN_COMM_TEST.c ****       /* RelationalOperator: '<S122>/LessThanOrEqual' */
2003:HANcoder_E407_CAN_COMM_TEST.c ****       OF7_CAN1 = (rtb_Fix >= rtb_Power2);
2004:HANcoder_E407_CAN_COMM_TEST.c **** 
2005:HANcoder_E407_CAN_COMM_TEST.c ****       /* Switch: '<S123>/Switch2' incorporates:
2006:HANcoder_E407_CAN_COMM_TEST.c ****        *  Constant: '<S12>/Constant2'
2007:HANcoder_E407_CAN_COMM_TEST.c ****        *  Constant: '<S12>/Constant3'
2008:HANcoder_E407_CAN_COMM_TEST.c ****        *  Constant: '<S12>/magnitude7'
2009:HANcoder_E407_CAN_COMM_TEST.c ****        *  RelationalOperator: '<S123>/LessThanOrEqual1'
2010:HANcoder_E407_CAN_COMM_TEST.c ****        *  RelationalOperator: '<S123>/LessThanOrEqual2'
2011:HANcoder_E407_CAN_COMM_TEST.c ****        *  Switch: '<S123>/Switch1'
2012:HANcoder_E407_CAN_COMM_TEST.c ****        */
2013:HANcoder_E407_CAN_COMM_TEST.c ****       if (Tx_Max_CAN1 < Tx_Buffer_8_CAN1) {
2014:HANcoder_E407_CAN_COMM_TEST.c ****         /* Switch: '<S123>/Switch' */
2015:HANcoder_E407_CAN_COMM_TEST.c ****         rtb_Switch2 = Tx_Max_CAN1;
2016:HANcoder_E407_CAN_COMM_TEST.c ****       } else if (Tx_Buffer_8_CAN1 >= Tx_Min_CAN1) {
2017:HANcoder_E407_CAN_COMM_TEST.c ****         /* Switch: '<S123>/Switch1' */
2018:HANcoder_E407_CAN_COMM_TEST.c ****         rtb_Switch2 = Tx_Buffer_8_CAN1;
2019:HANcoder_E407_CAN_COMM_TEST.c ****       } else {
2020:HANcoder_E407_CAN_COMM_TEST.c ****         rtb_Switch2 = Tx_Min_CAN1;
2021:HANcoder_E407_CAN_COMM_TEST.c ****       }
2022:HANcoder_E407_CAN_COMM_TEST.c **** 
2023:HANcoder_E407_CAN_COMM_TEST.c ****       /* End of Switch: '<S123>/Switch2' */
2024:HANcoder_E407_CAN_COMM_TEST.c **** 
2025:HANcoder_E407_CAN_COMM_TEST.c ****       /* Abs: '<S123>/Abs' */
2026:HANcoder_E407_CAN_COMM_TEST.c ****       rtb_Power2 = fabs(rtb_Switch2);
2027:HANcoder_E407_CAN_COMM_TEST.c **** 
2028:HANcoder_E407_CAN_COMM_TEST.c ****       /* Rounding: '<S123>/Fix' */
2029:HANcoder_E407_CAN_COMM_TEST.c ****       rtb_Fix = floor(rtb_Power2);
2030:HANcoder_E407_CAN_COMM_TEST.c **** 
2031:HANcoder_E407_CAN_COMM_TEST.c ****       /* Sum: '<S123>/Minus' */
2032:HANcoder_E407_CAN_COMM_TEST.c ****       rtb_Minus = rtb_Power2 - rtb_Fix;
2033:HANcoder_E407_CAN_COMM_TEST.c **** 
2034:HANcoder_E407_CAN_COMM_TEST.c ****       /* Gain: '<S123>/Gain' incorporates:
2035:HANcoder_E407_CAN_COMM_TEST.c ****        *  Constant: '<S12>/Constant4'
2036:HANcoder_E407_CAN_COMM_TEST.c ****        */
2037:HANcoder_E407_CAN_COMM_TEST.c ****       rtb_Fix1 = (-1.0) * precision_CAN1;
2038:HANcoder_E407_CAN_COMM_TEST.c **** 
2039:HANcoder_E407_CAN_COMM_TEST.c ****       /* Math: '<S123>/Power' incorporates:
2040:HANcoder_E407_CAN_COMM_TEST.c ****        *  Constant: '<S123>/Constant1'
2041:HANcoder_E407_CAN_COMM_TEST.c ****        *  Gain: '<S123>/Gain'
2042:HANcoder_E407_CAN_COMM_TEST.c ****        */
2043:HANcoder_E407_CAN_COMM_TEST.c ****       if ((2.0 < 0.0) && (rtb_Fix1 > floor(rtb_Fix1))) {
2044:HANcoder_E407_CAN_COMM_TEST.c ****         rtb_Fix1 = -pow(-2.0, rtb_Fix1);
2045:HANcoder_E407_CAN_COMM_TEST.c ****       } else {
2046:HANcoder_E407_CAN_COMM_TEST.c ****         rtb_Fix1 = pow(2.0, rtb_Fix1);
2047:HANcoder_E407_CAN_COMM_TEST.c ****       }
2048:HANcoder_E407_CAN_COMM_TEST.c **** 
2049:HANcoder_E407_CAN_COMM_TEST.c ****       /* End of Math: '<S123>/Power' */
2050:HANcoder_E407_CAN_COMM_TEST.c **** 
2051:HANcoder_E407_CAN_COMM_TEST.c ****       /* Math: '<S123>/Power2' incorporates:
2052:HANcoder_E407_CAN_COMM_TEST.c ****        *  Constant: '<S123>/Constant4'
2053:HANcoder_E407_CAN_COMM_TEST.c ****        */
2054:HANcoder_E407_CAN_COMM_TEST.c ****       if ((2.0 < 0.0) && (rtb_Fix1_tmp > floor(rtb_Fix1_tmp))) {
2055:HANcoder_E407_CAN_COMM_TEST.c ****         rtb_Power2 = -pow(-2.0, rtb_Fix1_tmp);
2056:HANcoder_E407_CAN_COMM_TEST.c ****       } else {
2057:HANcoder_E407_CAN_COMM_TEST.c ****         rtb_Power2 = pow(2.0, rtb_Fix1_tmp);
2058:HANcoder_E407_CAN_COMM_TEST.c ****       }
2059:HANcoder_E407_CAN_COMM_TEST.c **** 
2060:HANcoder_E407_CAN_COMM_TEST.c ****       /* End of Math: '<S123>/Power2' */
2061:HANcoder_E407_CAN_COMM_TEST.c **** 
2062:HANcoder_E407_CAN_COMM_TEST.c ****       /* Product: '<S123>/Divide' */
2063:HANcoder_E407_CAN_COMM_TEST.c ****       rtb_Fix1 = rtb_Minus / rtb_Fix1;
2064:HANcoder_E407_CAN_COMM_TEST.c **** 
2065:HANcoder_E407_CAN_COMM_TEST.c ****       /* Rounding: '<S123>/Fix1' */
2066:HANcoder_E407_CAN_COMM_TEST.c ****       if (rtb_Fix1 < 0.0) {
2067:HANcoder_E407_CAN_COMM_TEST.c ****         rtb_Fix1 = ceil(rtb_Fix1);
2068:HANcoder_E407_CAN_COMM_TEST.c ****       } else {
2069:HANcoder_E407_CAN_COMM_TEST.c ****         rtb_Fix1 = floor(rtb_Fix1);
2070:HANcoder_E407_CAN_COMM_TEST.c ****       }
2071:HANcoder_E407_CAN_COMM_TEST.c **** 
2072:HANcoder_E407_CAN_COMM_TEST.c ****       /* End of Rounding: '<S123>/Fix1' */
2073:HANcoder_E407_CAN_COMM_TEST.c **** 
2074:HANcoder_E407_CAN_COMM_TEST.c ****       /* DataTypeConversion: '<S123>/Cast' incorporates:
2075:HANcoder_E407_CAN_COMM_TEST.c ****        *  Constant: '<S123>/Constant'
2076:HANcoder_E407_CAN_COMM_TEST.c ****        *  RelationalOperator: '<S123>/GreaterThan'
2077:HANcoder_E407_CAN_COMM_TEST.c ****        */
2078:HANcoder_E407_CAN_COMM_TEST.c ****       rtb_Cast_p = (uint8_T)(rtb_Switch2 < 0.0);
2079:HANcoder_E407_CAN_COMM_TEST.c **** 
2080:HANcoder_E407_CAN_COMM_TEST.c ****       /* Outputs for Atomic SubSystem: '<S123>/Bit Shift' */
2081:HANcoder_E407_CAN_COMM_TEST.c ****       BitShift1(rtb_Cast_p, &rtB.BitShift_o0);
2082:HANcoder_E407_CAN_COMM_TEST.c **** 
2083:HANcoder_E407_CAN_COMM_TEST.c ****       /* End of Outputs for SubSystem: '<S123>/Bit Shift' */
2084:HANcoder_E407_CAN_COMM_TEST.c **** 
2085:HANcoder_E407_CAN_COMM_TEST.c ****       /* Math: '<S123>/Power1' incorporates:
2086:HANcoder_E407_CAN_COMM_TEST.c ****        *  Constant: '<S123>/Constant2'
2087:HANcoder_E407_CAN_COMM_TEST.c ****        *  Constant: '<S12>/Constant4'
2088:HANcoder_E407_CAN_COMM_TEST.c ****        */
2089:HANcoder_E407_CAN_COMM_TEST.c ****       if ((2.0 < 0.0) && (precision_CAN1 > floor(precision_CAN1))) {
2090:HANcoder_E407_CAN_COMM_TEST.c ****         rtb_Minus = -pow(-2.0, precision_CAN1);
2091:HANcoder_E407_CAN_COMM_TEST.c ****       } else {
2092:HANcoder_E407_CAN_COMM_TEST.c ****         rtb_Minus = pow(2.0, precision_CAN1);
2093:HANcoder_E407_CAN_COMM_TEST.c ****       }
2094:HANcoder_E407_CAN_COMM_TEST.c **** 
2095:HANcoder_E407_CAN_COMM_TEST.c ****       /* End of Math: '<S123>/Power1' */
2096:HANcoder_E407_CAN_COMM_TEST.c **** 
2097:HANcoder_E407_CAN_COMM_TEST.c ****       /* Sum: '<S123>/Plus' incorporates:
2098:HANcoder_E407_CAN_COMM_TEST.c ****        *  DataTypeConversion: '<S123>/Cast1'
2099:HANcoder_E407_CAN_COMM_TEST.c ****        *  DataTypeConversion: '<S123>/Cast2'
2100:HANcoder_E407_CAN_COMM_TEST.c ****        *  Product: '<S123>/Multiply'
2101:HANcoder_E407_CAN_COMM_TEST.c ****        */
2102:HANcoder_E407_CAN_COMM_TEST.c ****       Tx_coded8_CAN1 = (uint8_T)((uint32_T)(uint8_T)((uint32_T)(uint8_T)(rtb_Fix
2103:HANcoder_E407_CAN_COMM_TEST.c ****         * rtb_Minus) + rtB.BitShift_o0.y) + (uint8_T)rtb_Fix1);
2104:HANcoder_E407_CAN_COMM_TEST.c **** 
2105:HANcoder_E407_CAN_COMM_TEST.c ****       /* RelationalOperator: '<S123>/LessThanOrEqual' */
2106:HANcoder_E407_CAN_COMM_TEST.c ****       OF8_CAN1 = (rtb_Fix >= rtb_Power2);
2107:HANcoder_E407_CAN_COMM_TEST.c **** 
2108:HANcoder_E407_CAN_COMM_TEST.c ****       /* Switch: '<S124>/Switch2' incorporates:
2109:HANcoder_E407_CAN_COMM_TEST.c ****        *  Constant: '<S12>/Constant2'
2110:HANcoder_E407_CAN_COMM_TEST.c ****        *  Constant: '<S12>/Constant3'
2111:HANcoder_E407_CAN_COMM_TEST.c ****        *  Constant: '<S12>/magnitude2'
2112:HANcoder_E407_CAN_COMM_TEST.c ****        *  RelationalOperator: '<S124>/LessThanOrEqual1'
2113:HANcoder_E407_CAN_COMM_TEST.c ****        *  RelationalOperator: '<S124>/LessThanOrEqual2'
2114:HANcoder_E407_CAN_COMM_TEST.c ****        *  Switch: '<S124>/Switch1'
2115:HANcoder_E407_CAN_COMM_TEST.c ****        */
2116:HANcoder_E407_CAN_COMM_TEST.c ****       if (Tx_Max_CAN1 < Tx_Buffer_3_CAN1) {
2117:HANcoder_E407_CAN_COMM_TEST.c ****         /* Switch: '<S124>/Switch' */
2118:HANcoder_E407_CAN_COMM_TEST.c ****         rtb_Switch2 = Tx_Max_CAN1;
2119:HANcoder_E407_CAN_COMM_TEST.c ****       } else if (Tx_Buffer_3_CAN1 >= Tx_Min_CAN1) {
2120:HANcoder_E407_CAN_COMM_TEST.c ****         /* Switch: '<S124>/Switch1' */
2121:HANcoder_E407_CAN_COMM_TEST.c ****         rtb_Switch2 = Tx_Buffer_3_CAN1;
2122:HANcoder_E407_CAN_COMM_TEST.c ****       } else {
2123:HANcoder_E407_CAN_COMM_TEST.c ****         rtb_Switch2 = Tx_Min_CAN1;
2124:HANcoder_E407_CAN_COMM_TEST.c ****       }
2125:HANcoder_E407_CAN_COMM_TEST.c **** 
2126:HANcoder_E407_CAN_COMM_TEST.c ****       /* End of Switch: '<S124>/Switch2' */
2127:HANcoder_E407_CAN_COMM_TEST.c **** 
2128:HANcoder_E407_CAN_COMM_TEST.c ****       /* Abs: '<S124>/Abs' */
2129:HANcoder_E407_CAN_COMM_TEST.c ****       rtb_Power2 = fabs(rtb_Switch2);
2130:HANcoder_E407_CAN_COMM_TEST.c **** 
2131:HANcoder_E407_CAN_COMM_TEST.c ****       /* Rounding: '<S124>/Fix' */
2132:HANcoder_E407_CAN_COMM_TEST.c ****       rtb_Fix = floor(rtb_Power2);
2133:HANcoder_E407_CAN_COMM_TEST.c **** 
2134:HANcoder_E407_CAN_COMM_TEST.c ****       /* Sum: '<S124>/Minus' */
2135:HANcoder_E407_CAN_COMM_TEST.c ****       rtb_Minus = rtb_Power2 - rtb_Fix;
2136:HANcoder_E407_CAN_COMM_TEST.c **** 
2137:HANcoder_E407_CAN_COMM_TEST.c ****       /* Gain: '<S124>/Gain' incorporates:
2138:HANcoder_E407_CAN_COMM_TEST.c ****        *  Constant: '<S12>/Constant4'
2139:HANcoder_E407_CAN_COMM_TEST.c ****        */
2140:HANcoder_E407_CAN_COMM_TEST.c ****       rtb_Fix1 = (-1.0) * precision_CAN1;
2141:HANcoder_E407_CAN_COMM_TEST.c **** 
2142:HANcoder_E407_CAN_COMM_TEST.c ****       /* Math: '<S124>/Power' incorporates:
2143:HANcoder_E407_CAN_COMM_TEST.c ****        *  Constant: '<S124>/Constant1'
2144:HANcoder_E407_CAN_COMM_TEST.c ****        *  Gain: '<S124>/Gain'
2145:HANcoder_E407_CAN_COMM_TEST.c ****        */
2146:HANcoder_E407_CAN_COMM_TEST.c ****       if ((2.0 < 0.0) && (rtb_Fix1 > floor(rtb_Fix1))) {
2147:HANcoder_E407_CAN_COMM_TEST.c ****         rtb_Fix1 = -pow(-2.0, rtb_Fix1);
2148:HANcoder_E407_CAN_COMM_TEST.c ****       } else {
2149:HANcoder_E407_CAN_COMM_TEST.c ****         rtb_Fix1 = pow(2.0, rtb_Fix1);
2150:HANcoder_E407_CAN_COMM_TEST.c ****       }
2151:HANcoder_E407_CAN_COMM_TEST.c **** 
2152:HANcoder_E407_CAN_COMM_TEST.c ****       /* End of Math: '<S124>/Power' */
2153:HANcoder_E407_CAN_COMM_TEST.c **** 
2154:HANcoder_E407_CAN_COMM_TEST.c ****       /* Math: '<S124>/Power2' incorporates:
2155:HANcoder_E407_CAN_COMM_TEST.c ****        *  Constant: '<S124>/Constant4'
2156:HANcoder_E407_CAN_COMM_TEST.c ****        */
2157:HANcoder_E407_CAN_COMM_TEST.c ****       if ((2.0 < 0.0) && (rtb_Fix1_tmp > floor(rtb_Fix1_tmp))) {
2158:HANcoder_E407_CAN_COMM_TEST.c ****         rtb_Power2 = -pow(-2.0, rtb_Fix1_tmp);
2159:HANcoder_E407_CAN_COMM_TEST.c ****       } else {
2160:HANcoder_E407_CAN_COMM_TEST.c ****         rtb_Power2 = pow(2.0, rtb_Fix1_tmp);
2161:HANcoder_E407_CAN_COMM_TEST.c ****       }
2162:HANcoder_E407_CAN_COMM_TEST.c **** 
2163:HANcoder_E407_CAN_COMM_TEST.c ****       /* End of Math: '<S124>/Power2' */
2164:HANcoder_E407_CAN_COMM_TEST.c **** 
2165:HANcoder_E407_CAN_COMM_TEST.c ****       /* Product: '<S124>/Divide' */
2166:HANcoder_E407_CAN_COMM_TEST.c ****       rtb_Fix1 = rtb_Minus / rtb_Fix1;
2167:HANcoder_E407_CAN_COMM_TEST.c **** 
2168:HANcoder_E407_CAN_COMM_TEST.c ****       /* Rounding: '<S124>/Fix1' */
2169:HANcoder_E407_CAN_COMM_TEST.c ****       if (rtb_Fix1 < 0.0) {
2170:HANcoder_E407_CAN_COMM_TEST.c ****         rtb_Fix1 = ceil(rtb_Fix1);
2171:HANcoder_E407_CAN_COMM_TEST.c ****       } else {
2172:HANcoder_E407_CAN_COMM_TEST.c ****         rtb_Fix1 = floor(rtb_Fix1);
2173:HANcoder_E407_CAN_COMM_TEST.c ****       }
2174:HANcoder_E407_CAN_COMM_TEST.c **** 
2175:HANcoder_E407_CAN_COMM_TEST.c ****       /* End of Rounding: '<S124>/Fix1' */
2176:HANcoder_E407_CAN_COMM_TEST.c **** 
2177:HANcoder_E407_CAN_COMM_TEST.c ****       /* DataTypeConversion: '<S124>/Cast' incorporates:
2178:HANcoder_E407_CAN_COMM_TEST.c ****        *  Constant: '<S124>/Constant'
2179:HANcoder_E407_CAN_COMM_TEST.c ****        *  RelationalOperator: '<S124>/GreaterThan'
2180:HANcoder_E407_CAN_COMM_TEST.c ****        */
2181:HANcoder_E407_CAN_COMM_TEST.c ****       rtb_Cast_l = (uint8_T)(rtb_Switch2 < 0.0);
2182:HANcoder_E407_CAN_COMM_TEST.c **** 
2183:HANcoder_E407_CAN_COMM_TEST.c ****       /* Outputs for Atomic SubSystem: '<S124>/Bit Shift' */
2184:HANcoder_E407_CAN_COMM_TEST.c ****       BitShift1(rtb_Cast_l, &rtB.BitShift_lm);
2185:HANcoder_E407_CAN_COMM_TEST.c **** 
2186:HANcoder_E407_CAN_COMM_TEST.c ****       /* End of Outputs for SubSystem: '<S124>/Bit Shift' */
2187:HANcoder_E407_CAN_COMM_TEST.c **** 
2188:HANcoder_E407_CAN_COMM_TEST.c ****       /* Math: '<S124>/Power1' incorporates:
2189:HANcoder_E407_CAN_COMM_TEST.c ****        *  Constant: '<S124>/Constant2'
2190:HANcoder_E407_CAN_COMM_TEST.c ****        *  Constant: '<S12>/Constant4'
2191:HANcoder_E407_CAN_COMM_TEST.c ****        */
2192:HANcoder_E407_CAN_COMM_TEST.c ****       if ((2.0 < 0.0) && (precision_CAN1 > floor(precision_CAN1))) {
2193:HANcoder_E407_CAN_COMM_TEST.c ****         rtb_Minus = -pow(-2.0, precision_CAN1);
2194:HANcoder_E407_CAN_COMM_TEST.c ****       } else {
2195:HANcoder_E407_CAN_COMM_TEST.c ****         rtb_Minus = pow(2.0, precision_CAN1);
2196:HANcoder_E407_CAN_COMM_TEST.c ****       }
2197:HANcoder_E407_CAN_COMM_TEST.c **** 
2198:HANcoder_E407_CAN_COMM_TEST.c ****       /* End of Math: '<S124>/Power1' */
2199:HANcoder_E407_CAN_COMM_TEST.c **** 
2200:HANcoder_E407_CAN_COMM_TEST.c ****       /* Sum: '<S124>/Plus' incorporates:
2201:HANcoder_E407_CAN_COMM_TEST.c ****        *  DataTypeConversion: '<S124>/Cast1'
2202:HANcoder_E407_CAN_COMM_TEST.c ****        *  DataTypeConversion: '<S124>/Cast2'
2203:HANcoder_E407_CAN_COMM_TEST.c ****        *  Product: '<S124>/Multiply'
2204:HANcoder_E407_CAN_COMM_TEST.c ****        */
2205:HANcoder_E407_CAN_COMM_TEST.c ****       Tx_coded3_CAN1 = (uint8_T)((uint32_T)(uint8_T)((uint32_T)(uint8_T)(rtb_Fix
2206:HANcoder_E407_CAN_COMM_TEST.c ****         * rtb_Minus) + rtB.BitShift_lm.y) + (uint8_T)rtb_Fix1);
2207:HANcoder_E407_CAN_COMM_TEST.c **** 
2208:HANcoder_E407_CAN_COMM_TEST.c ****       /* RelationalOperator: '<S124>/LessThanOrEqual' */
2209:HANcoder_E407_CAN_COMM_TEST.c ****       OF3_CAN1 = (rtb_Fix >= rtb_Power2);
2210:HANcoder_E407_CAN_COMM_TEST.c **** 
2211:HANcoder_E407_CAN_COMM_TEST.c ****       /* Switch: '<S125>/Switch2' incorporates:
2212:HANcoder_E407_CAN_COMM_TEST.c ****        *  Constant: '<S12>/Constant2'
2213:HANcoder_E407_CAN_COMM_TEST.c ****        *  Constant: '<S12>/Constant3'
2214:HANcoder_E407_CAN_COMM_TEST.c ****        *  Constant: '<S12>/magnitude1'
2215:HANcoder_E407_CAN_COMM_TEST.c ****        *  RelationalOperator: '<S125>/LessThanOrEqual1'
2216:HANcoder_E407_CAN_COMM_TEST.c ****        *  RelationalOperator: '<S125>/LessThanOrEqual2'
2217:HANcoder_E407_CAN_COMM_TEST.c ****        *  Switch: '<S125>/Switch1'
2218:HANcoder_E407_CAN_COMM_TEST.c ****        */
2219:HANcoder_E407_CAN_COMM_TEST.c ****       if (Tx_Max_CAN1 < Tx_Buffer_2_CAN1) {
2220:HANcoder_E407_CAN_COMM_TEST.c ****         /* Switch: '<S125>/Switch' */
2221:HANcoder_E407_CAN_COMM_TEST.c ****         rtb_Switch2 = Tx_Max_CAN1;
2222:HANcoder_E407_CAN_COMM_TEST.c ****       } else if (Tx_Buffer_2_CAN1 >= Tx_Min_CAN1) {
2223:HANcoder_E407_CAN_COMM_TEST.c ****         /* Switch: '<S125>/Switch1' */
2224:HANcoder_E407_CAN_COMM_TEST.c ****         rtb_Switch2 = Tx_Buffer_2_CAN1;
2225:HANcoder_E407_CAN_COMM_TEST.c ****       } else {
2226:HANcoder_E407_CAN_COMM_TEST.c ****         rtb_Switch2 = Tx_Min_CAN1;
2227:HANcoder_E407_CAN_COMM_TEST.c ****       }
2228:HANcoder_E407_CAN_COMM_TEST.c **** 
2229:HANcoder_E407_CAN_COMM_TEST.c ****       /* End of Switch: '<S125>/Switch2' */
2230:HANcoder_E407_CAN_COMM_TEST.c **** 
2231:HANcoder_E407_CAN_COMM_TEST.c ****       /* Abs: '<S125>/Abs' */
2232:HANcoder_E407_CAN_COMM_TEST.c ****       rtb_Power2 = fabs(rtb_Switch2);
2233:HANcoder_E407_CAN_COMM_TEST.c **** 
2234:HANcoder_E407_CAN_COMM_TEST.c ****       /* Rounding: '<S125>/Fix' */
2235:HANcoder_E407_CAN_COMM_TEST.c ****       rtb_Fix = floor(rtb_Power2);
2236:HANcoder_E407_CAN_COMM_TEST.c **** 
2237:HANcoder_E407_CAN_COMM_TEST.c ****       /* Sum: '<S125>/Minus' */
2238:HANcoder_E407_CAN_COMM_TEST.c ****       rtb_Minus = rtb_Power2 - rtb_Fix;
2239:HANcoder_E407_CAN_COMM_TEST.c **** 
2240:HANcoder_E407_CAN_COMM_TEST.c ****       /* Gain: '<S125>/Gain' incorporates:
2241:HANcoder_E407_CAN_COMM_TEST.c ****        *  Constant: '<S12>/Constant4'
2242:HANcoder_E407_CAN_COMM_TEST.c ****        */
2243:HANcoder_E407_CAN_COMM_TEST.c ****       rtb_Fix1 = (-1.0) * precision_CAN1;
2244:HANcoder_E407_CAN_COMM_TEST.c **** 
2245:HANcoder_E407_CAN_COMM_TEST.c ****       /* Math: '<S125>/Power' incorporates:
2246:HANcoder_E407_CAN_COMM_TEST.c ****        *  Constant: '<S125>/Constant1'
2247:HANcoder_E407_CAN_COMM_TEST.c ****        *  Gain: '<S125>/Gain'
2248:HANcoder_E407_CAN_COMM_TEST.c ****        */
2249:HANcoder_E407_CAN_COMM_TEST.c ****       if ((2.0 < 0.0) && (rtb_Fix1 > floor(rtb_Fix1))) {
2250:HANcoder_E407_CAN_COMM_TEST.c ****         rtb_Fix1 = -pow(-2.0, rtb_Fix1);
2251:HANcoder_E407_CAN_COMM_TEST.c ****       } else {
2252:HANcoder_E407_CAN_COMM_TEST.c ****         rtb_Fix1 = pow(2.0, rtb_Fix1);
2253:HANcoder_E407_CAN_COMM_TEST.c ****       }
2254:HANcoder_E407_CAN_COMM_TEST.c **** 
2255:HANcoder_E407_CAN_COMM_TEST.c ****       /* End of Math: '<S125>/Power' */
2256:HANcoder_E407_CAN_COMM_TEST.c **** 
2257:HANcoder_E407_CAN_COMM_TEST.c ****       /* Math: '<S125>/Power2' incorporates:
2258:HANcoder_E407_CAN_COMM_TEST.c ****        *  Constant: '<S125>/Constant4'
2259:HANcoder_E407_CAN_COMM_TEST.c ****        */
2260:HANcoder_E407_CAN_COMM_TEST.c ****       if ((2.0 < 0.0) && (rtb_Fix1_tmp > floor(rtb_Fix1_tmp))) {
2261:HANcoder_E407_CAN_COMM_TEST.c ****         rtb_Power2 = -pow(-2.0, rtb_Fix1_tmp);
2262:HANcoder_E407_CAN_COMM_TEST.c ****       } else {
2263:HANcoder_E407_CAN_COMM_TEST.c ****         rtb_Power2 = pow(2.0, rtb_Fix1_tmp);
2264:HANcoder_E407_CAN_COMM_TEST.c ****       }
2265:HANcoder_E407_CAN_COMM_TEST.c **** 
2266:HANcoder_E407_CAN_COMM_TEST.c ****       /* End of Math: '<S125>/Power2' */
2267:HANcoder_E407_CAN_COMM_TEST.c **** 
2268:HANcoder_E407_CAN_COMM_TEST.c ****       /* Product: '<S125>/Divide' */
2269:HANcoder_E407_CAN_COMM_TEST.c ****       rtb_Fix1 = rtb_Minus / rtb_Fix1;
2270:HANcoder_E407_CAN_COMM_TEST.c **** 
2271:HANcoder_E407_CAN_COMM_TEST.c ****       /* Rounding: '<S125>/Fix1' */
2272:HANcoder_E407_CAN_COMM_TEST.c ****       if (rtb_Fix1 < 0.0) {
2273:HANcoder_E407_CAN_COMM_TEST.c ****         rtb_Fix1 = ceil(rtb_Fix1);
2274:HANcoder_E407_CAN_COMM_TEST.c ****       } else {
2275:HANcoder_E407_CAN_COMM_TEST.c ****         rtb_Fix1 = floor(rtb_Fix1);
2276:HANcoder_E407_CAN_COMM_TEST.c ****       }
2277:HANcoder_E407_CAN_COMM_TEST.c **** 
2278:HANcoder_E407_CAN_COMM_TEST.c ****       /* End of Rounding: '<S125>/Fix1' */
2279:HANcoder_E407_CAN_COMM_TEST.c **** 
2280:HANcoder_E407_CAN_COMM_TEST.c ****       /* DataTypeConversion: '<S125>/Cast' incorporates:
2281:HANcoder_E407_CAN_COMM_TEST.c ****        *  Constant: '<S125>/Constant'
2282:HANcoder_E407_CAN_COMM_TEST.c ****        *  RelationalOperator: '<S125>/GreaterThan'
2283:HANcoder_E407_CAN_COMM_TEST.c ****        */
2284:HANcoder_E407_CAN_COMM_TEST.c ****       rtb_Cast_e4 = (uint8_T)(rtb_Switch2 < 0.0);
2285:HANcoder_E407_CAN_COMM_TEST.c **** 
2286:HANcoder_E407_CAN_COMM_TEST.c ****       /* Outputs for Atomic SubSystem: '<S125>/Bit Shift' */
2287:HANcoder_E407_CAN_COMM_TEST.c ****       BitShift1(rtb_Cast_e4, &rtB.BitShift_aa);
2288:HANcoder_E407_CAN_COMM_TEST.c **** 
2289:HANcoder_E407_CAN_COMM_TEST.c ****       /* End of Outputs for SubSystem: '<S125>/Bit Shift' */
2290:HANcoder_E407_CAN_COMM_TEST.c **** 
2291:HANcoder_E407_CAN_COMM_TEST.c ****       /* Math: '<S125>/Power1' incorporates:
2292:HANcoder_E407_CAN_COMM_TEST.c ****        *  Constant: '<S125>/Constant2'
2293:HANcoder_E407_CAN_COMM_TEST.c ****        *  Constant: '<S12>/Constant4'
2294:HANcoder_E407_CAN_COMM_TEST.c ****        */
2295:HANcoder_E407_CAN_COMM_TEST.c ****       if ((2.0 < 0.0) && (precision_CAN1 > floor(precision_CAN1))) {
2296:HANcoder_E407_CAN_COMM_TEST.c ****         rtb_Minus = -pow(-2.0, precision_CAN1);
2297:HANcoder_E407_CAN_COMM_TEST.c ****       } else {
2298:HANcoder_E407_CAN_COMM_TEST.c ****         rtb_Minus = pow(2.0, precision_CAN1);
2299:HANcoder_E407_CAN_COMM_TEST.c ****       }
2300:HANcoder_E407_CAN_COMM_TEST.c **** 
2301:HANcoder_E407_CAN_COMM_TEST.c ****       /* End of Math: '<S125>/Power1' */
2302:HANcoder_E407_CAN_COMM_TEST.c **** 
2303:HANcoder_E407_CAN_COMM_TEST.c ****       /* Sum: '<S125>/Plus' incorporates:
2304:HANcoder_E407_CAN_COMM_TEST.c ****        *  DataTypeConversion: '<S125>/Cast1'
2305:HANcoder_E407_CAN_COMM_TEST.c ****        *  DataTypeConversion: '<S125>/Cast2'
2306:HANcoder_E407_CAN_COMM_TEST.c ****        *  Product: '<S125>/Multiply'
2307:HANcoder_E407_CAN_COMM_TEST.c ****        */
2308:HANcoder_E407_CAN_COMM_TEST.c ****       Tx_coded2_CAN1 = (uint8_T)((uint32_T)(uint8_T)((uint32_T)(uint8_T)(rtb_Fix
2309:HANcoder_E407_CAN_COMM_TEST.c ****         * rtb_Minus) + rtB.BitShift_aa.y) + (uint8_T)rtb_Fix1);
2310:HANcoder_E407_CAN_COMM_TEST.c **** 
2311:HANcoder_E407_CAN_COMM_TEST.c ****       /* RelationalOperator: '<S125>/LessThanOrEqual' */
2312:HANcoder_E407_CAN_COMM_TEST.c ****       OF2_CAN1 = (rtb_Fix >= rtb_Power2);
2313:HANcoder_E407_CAN_COMM_TEST.c **** 
2314:HANcoder_E407_CAN_COMM_TEST.c ****       /* Switch: '<S126>/Switch2' incorporates:
2315:HANcoder_E407_CAN_COMM_TEST.c ****        *  Constant: '<S12>/Constant2'
2316:HANcoder_E407_CAN_COMM_TEST.c ****        *  Constant: '<S12>/Constant3'
2317:HANcoder_E407_CAN_COMM_TEST.c ****        *  Constant: '<S12>/magnitude'
2318:HANcoder_E407_CAN_COMM_TEST.c ****        *  RelationalOperator: '<S126>/LessThanOrEqual1'
2319:HANcoder_E407_CAN_COMM_TEST.c ****        *  RelationalOperator: '<S126>/LessThanOrEqual2'
2320:HANcoder_E407_CAN_COMM_TEST.c ****        *  Switch: '<S126>/Switch1'
2321:HANcoder_E407_CAN_COMM_TEST.c ****        */
2322:HANcoder_E407_CAN_COMM_TEST.c ****       if (Tx_Max_CAN1 < Tx_Buffer_1_CAN1) {
2323:HANcoder_E407_CAN_COMM_TEST.c ****         /* Switch: '<S126>/Switch' */
2324:HANcoder_E407_CAN_COMM_TEST.c ****         rtb_Switch2 = Tx_Max_CAN1;
2325:HANcoder_E407_CAN_COMM_TEST.c ****       } else if (Tx_Buffer_1_CAN1 >= Tx_Min_CAN1) {
2326:HANcoder_E407_CAN_COMM_TEST.c ****         /* Switch: '<S126>/Switch1' */
2327:HANcoder_E407_CAN_COMM_TEST.c ****         rtb_Switch2 = Tx_Buffer_1_CAN1;
2328:HANcoder_E407_CAN_COMM_TEST.c ****       } else {
2329:HANcoder_E407_CAN_COMM_TEST.c ****         rtb_Switch2 = Tx_Min_CAN1;
2330:HANcoder_E407_CAN_COMM_TEST.c ****       }
2331:HANcoder_E407_CAN_COMM_TEST.c **** 
2332:HANcoder_E407_CAN_COMM_TEST.c ****       /* End of Switch: '<S126>/Switch2' */
2333:HANcoder_E407_CAN_COMM_TEST.c **** 
2334:HANcoder_E407_CAN_COMM_TEST.c ****       /* Abs: '<S126>/Abs' */
2335:HANcoder_E407_CAN_COMM_TEST.c ****       rtb_Power2 = fabs(rtb_Switch2);
2336:HANcoder_E407_CAN_COMM_TEST.c **** 
2337:HANcoder_E407_CAN_COMM_TEST.c ****       /* Rounding: '<S126>/Fix' */
2338:HANcoder_E407_CAN_COMM_TEST.c ****       rtb_Fix = floor(rtb_Power2);
2339:HANcoder_E407_CAN_COMM_TEST.c **** 
2340:HANcoder_E407_CAN_COMM_TEST.c ****       /* Sum: '<S126>/Minus' */
2341:HANcoder_E407_CAN_COMM_TEST.c ****       rtb_Minus = rtb_Power2 - rtb_Fix;
2342:HANcoder_E407_CAN_COMM_TEST.c **** 
2343:HANcoder_E407_CAN_COMM_TEST.c ****       /* Gain: '<S126>/Gain' incorporates:
2344:HANcoder_E407_CAN_COMM_TEST.c ****        *  Constant: '<S12>/Constant4'
2345:HANcoder_E407_CAN_COMM_TEST.c ****        */
2346:HANcoder_E407_CAN_COMM_TEST.c ****       rtb_Fix1 = (-1.0) * precision_CAN1;
2347:HANcoder_E407_CAN_COMM_TEST.c **** 
2348:HANcoder_E407_CAN_COMM_TEST.c ****       /* Math: '<S126>/Power' incorporates:
2349:HANcoder_E407_CAN_COMM_TEST.c ****        *  Constant: '<S126>/Constant1'
2350:HANcoder_E407_CAN_COMM_TEST.c ****        *  Gain: '<S126>/Gain'
2351:HANcoder_E407_CAN_COMM_TEST.c ****        */
2352:HANcoder_E407_CAN_COMM_TEST.c ****       if ((2.0 < 0.0) && (rtb_Fix1 > floor(rtb_Fix1))) {
2353:HANcoder_E407_CAN_COMM_TEST.c ****         rtb_Fix1 = -pow(-2.0, rtb_Fix1);
2354:HANcoder_E407_CAN_COMM_TEST.c ****       } else {
2355:HANcoder_E407_CAN_COMM_TEST.c ****         rtb_Fix1 = pow(2.0, rtb_Fix1);
2356:HANcoder_E407_CAN_COMM_TEST.c ****       }
2357:HANcoder_E407_CAN_COMM_TEST.c **** 
2358:HANcoder_E407_CAN_COMM_TEST.c ****       /* End of Math: '<S126>/Power' */
2359:HANcoder_E407_CAN_COMM_TEST.c **** 
2360:HANcoder_E407_CAN_COMM_TEST.c ****       /* Math: '<S126>/Power2' incorporates:
2361:HANcoder_E407_CAN_COMM_TEST.c ****        *  Constant: '<S126>/Constant4'
2362:HANcoder_E407_CAN_COMM_TEST.c ****        */
2363:HANcoder_E407_CAN_COMM_TEST.c ****       if ((2.0 < 0.0) && (rtb_Fix1_tmp > floor(rtb_Fix1_tmp))) {
2364:HANcoder_E407_CAN_COMM_TEST.c ****         rtb_Power2 = -pow(-2.0, rtb_Fix1_tmp);
2365:HANcoder_E407_CAN_COMM_TEST.c ****       } else {
2366:HANcoder_E407_CAN_COMM_TEST.c ****         rtb_Power2 = pow(2.0, rtb_Fix1_tmp);
2367:HANcoder_E407_CAN_COMM_TEST.c ****       }
2368:HANcoder_E407_CAN_COMM_TEST.c **** 
2369:HANcoder_E407_CAN_COMM_TEST.c ****       /* End of Math: '<S126>/Power2' */
2370:HANcoder_E407_CAN_COMM_TEST.c **** 
2371:HANcoder_E407_CAN_COMM_TEST.c ****       /* Product: '<S126>/Divide' */
2372:HANcoder_E407_CAN_COMM_TEST.c ****       rtb_Fix1 = rtb_Minus / rtb_Fix1;
2373:HANcoder_E407_CAN_COMM_TEST.c **** 
2374:HANcoder_E407_CAN_COMM_TEST.c ****       /* Rounding: '<S126>/Fix1' */
2375:HANcoder_E407_CAN_COMM_TEST.c ****       if (rtb_Fix1 < 0.0) {
2376:HANcoder_E407_CAN_COMM_TEST.c ****         rtb_Fix1 = ceil(rtb_Fix1);
2377:HANcoder_E407_CAN_COMM_TEST.c ****       } else {
2378:HANcoder_E407_CAN_COMM_TEST.c ****         rtb_Fix1 = floor(rtb_Fix1);
2379:HANcoder_E407_CAN_COMM_TEST.c ****       }
2380:HANcoder_E407_CAN_COMM_TEST.c **** 
2381:HANcoder_E407_CAN_COMM_TEST.c ****       /* End of Rounding: '<S126>/Fix1' */
2382:HANcoder_E407_CAN_COMM_TEST.c **** 
2383:HANcoder_E407_CAN_COMM_TEST.c ****       /* DataTypeConversion: '<S126>/Cast' incorporates:
2384:HANcoder_E407_CAN_COMM_TEST.c ****        *  Constant: '<S126>/Constant'
2385:HANcoder_E407_CAN_COMM_TEST.c ****        *  RelationalOperator: '<S126>/GreaterThan'
2386:HANcoder_E407_CAN_COMM_TEST.c ****        */
2387:HANcoder_E407_CAN_COMM_TEST.c ****       rtb_Cast_eg = (uint8_T)(rtb_Switch2 < 0.0);
2388:HANcoder_E407_CAN_COMM_TEST.c **** 
2389:HANcoder_E407_CAN_COMM_TEST.c ****       /* Outputs for Atomic SubSystem: '<S126>/Bit Shift' */
2390:HANcoder_E407_CAN_COMM_TEST.c ****       BitShift1(rtb_Cast_eg, &rtB.BitShift_p1);
2391:HANcoder_E407_CAN_COMM_TEST.c **** 
2392:HANcoder_E407_CAN_COMM_TEST.c ****       /* End of Outputs for SubSystem: '<S126>/Bit Shift' */
2393:HANcoder_E407_CAN_COMM_TEST.c **** 
2394:HANcoder_E407_CAN_COMM_TEST.c ****       /* Math: '<S126>/Power1' incorporates:
2395:HANcoder_E407_CAN_COMM_TEST.c ****        *  Constant: '<S126>/Constant2'
2396:HANcoder_E407_CAN_COMM_TEST.c ****        *  Constant: '<S12>/Constant4'
2397:HANcoder_E407_CAN_COMM_TEST.c ****        */
2398:HANcoder_E407_CAN_COMM_TEST.c ****       if ((2.0 < 0.0) && (precision_CAN1 > floor(precision_CAN1))) {
2399:HANcoder_E407_CAN_COMM_TEST.c ****         rtb_Minus = -pow(-2.0, precision_CAN1);
2400:HANcoder_E407_CAN_COMM_TEST.c ****       } else {
2401:HANcoder_E407_CAN_COMM_TEST.c ****         rtb_Minus = pow(2.0, precision_CAN1);
2402:HANcoder_E407_CAN_COMM_TEST.c ****       }
2403:HANcoder_E407_CAN_COMM_TEST.c **** 
2404:HANcoder_E407_CAN_COMM_TEST.c ****       /* End of Math: '<S126>/Power1' */
2405:HANcoder_E407_CAN_COMM_TEST.c **** 
2406:HANcoder_E407_CAN_COMM_TEST.c ****       /* Sum: '<S126>/Plus' incorporates:
2407:HANcoder_E407_CAN_COMM_TEST.c ****        *  DataTypeConversion: '<S126>/Cast1'
2408:HANcoder_E407_CAN_COMM_TEST.c ****        *  DataTypeConversion: '<S126>/Cast2'
2409:HANcoder_E407_CAN_COMM_TEST.c ****        *  Product: '<S126>/Multiply'
2410:HANcoder_E407_CAN_COMM_TEST.c ****        */
2411:HANcoder_E407_CAN_COMM_TEST.c ****       Tx_coded1_CAN1 = (uint8_T)((uint32_T)(uint8_T)((uint32_T)(uint8_T)(rtb_Fix
2412:HANcoder_E407_CAN_COMM_TEST.c ****         * rtb_Minus) + rtB.BitShift_p1.y) + (uint8_T)rtb_Fix1);
2413:HANcoder_E407_CAN_COMM_TEST.c **** 
2414:HANcoder_E407_CAN_COMM_TEST.c ****       /* RelationalOperator: '<S126>/LessThanOrEqual' */
2415:HANcoder_E407_CAN_COMM_TEST.c ****       OF1_CAN1 = (rtb_Fix >= rtb_Power2);
2416:HANcoder_E407_CAN_COMM_TEST.c **** 
2417:HANcoder_E407_CAN_COMM_TEST.c ****       /* Switch: '<S113>/Switch2' incorporates:
2418:HANcoder_E407_CAN_COMM_TEST.c ****        *  Constant: '<S12>/Constant5'
2419:HANcoder_E407_CAN_COMM_TEST.c ****        *  Constant: '<S12>/Constant6'
2420:HANcoder_E407_CAN_COMM_TEST.c ****        *  Constant: '<S12>/magnitude9'
2421:HANcoder_E407_CAN_COMM_TEST.c ****        *  RelationalOperator: '<S113>/LessThanOrEqual1'
2422:HANcoder_E407_CAN_COMM_TEST.c ****        *  RelationalOperator: '<S113>/LessThanOrEqual2'
2423:HANcoder_E407_CAN_COMM_TEST.c ****        *  Switch: '<S113>/Switch1'
2424:HANcoder_E407_CAN_COMM_TEST.c ****        */
2425:HANcoder_E407_CAN_COMM_TEST.c ****       if (Tx_Max_CAN2 < Tx_Buffer_2_CAN2) {
2426:HANcoder_E407_CAN_COMM_TEST.c ****         /* Switch: '<S113>/Switch' */
2427:HANcoder_E407_CAN_COMM_TEST.c ****         rtb_Switch2 = Tx_Max_CAN2;
2428:HANcoder_E407_CAN_COMM_TEST.c ****       } else if (Tx_Buffer_2_CAN2 >= Tx_Min_CAN2) {
2429:HANcoder_E407_CAN_COMM_TEST.c ****         /* Switch: '<S113>/Switch1' */
2430:HANcoder_E407_CAN_COMM_TEST.c ****         rtb_Switch2 = Tx_Buffer_2_CAN2;
2431:HANcoder_E407_CAN_COMM_TEST.c ****       } else {
2432:HANcoder_E407_CAN_COMM_TEST.c ****         rtb_Switch2 = Tx_Min_CAN2;
2433:HANcoder_E407_CAN_COMM_TEST.c ****       }
2434:HANcoder_E407_CAN_COMM_TEST.c **** 
2435:HANcoder_E407_CAN_COMM_TEST.c ****       /* End of Switch: '<S113>/Switch2' */
2436:HANcoder_E407_CAN_COMM_TEST.c **** 
2437:HANcoder_E407_CAN_COMM_TEST.c ****       /* Abs: '<S113>/Abs' */
2438:HANcoder_E407_CAN_COMM_TEST.c ****       rtb_Power2 = fabs(rtb_Switch2);
2439:HANcoder_E407_CAN_COMM_TEST.c **** 
2440:HANcoder_E407_CAN_COMM_TEST.c ****       /* Rounding: '<S113>/Fix' */
2441:HANcoder_E407_CAN_COMM_TEST.c ****       rtb_Fix = floor(rtb_Power2);
2442:HANcoder_E407_CAN_COMM_TEST.c **** 
2443:HANcoder_E407_CAN_COMM_TEST.c ****       /* Sum: '<S113>/Minus' */
2444:HANcoder_E407_CAN_COMM_TEST.c ****       rtb_Minus = rtb_Power2 - rtb_Fix;
2445:HANcoder_E407_CAN_COMM_TEST.c **** 
2446:HANcoder_E407_CAN_COMM_TEST.c ****       /* Sum: '<S113>/Minus1' incorporates:
2447:HANcoder_E407_CAN_COMM_TEST.c ****        *  Constant: '<S113>/Constant3'
2448:HANcoder_E407_CAN_COMM_TEST.c ****        *  Constant: '<S12>/Constant7'
2449:HANcoder_E407_CAN_COMM_TEST.c ****        *  Sum: '<S114>/Minus1'
2450:HANcoder_E407_CAN_COMM_TEST.c ****        *  Sum: '<S115>/Minus1'
2451:HANcoder_E407_CAN_COMM_TEST.c ****        *  Sum: '<S116>/Minus1'
2452:HANcoder_E407_CAN_COMM_TEST.c ****        *  Sum: '<S117>/Minus1'
2453:HANcoder_E407_CAN_COMM_TEST.c ****        *  Sum: '<S118>/Minus1'
2454:HANcoder_E407_CAN_COMM_TEST.c ****        *  Sum: '<S119>/Minus1'
2455:HANcoder_E407_CAN_COMM_TEST.c ****        *  Sum: '<S127>/Minus1'
2456:HANcoder_E407_CAN_COMM_TEST.c ****        */
2457:HANcoder_E407_CAN_COMM_TEST.c ****       rtb_Fix1_tmp = 7.0 - precision_CAN2;
2458:HANcoder_E407_CAN_COMM_TEST.c **** 
2459:HANcoder_E407_CAN_COMM_TEST.c ****       /* Gain: '<S113>/Gain' incorporates:
2460:HANcoder_E407_CAN_COMM_TEST.c ****        *  Constant: '<S12>/Constant7'
2461:HANcoder_E407_CAN_COMM_TEST.c ****        */
2462:HANcoder_E407_CAN_COMM_TEST.c ****       rtb_Fix1 = (-1.0) * precision_CAN2;
2463:HANcoder_E407_CAN_COMM_TEST.c **** 
2464:HANcoder_E407_CAN_COMM_TEST.c ****       /* Math: '<S113>/Power' incorporates:
2465:HANcoder_E407_CAN_COMM_TEST.c ****        *  Constant: '<S113>/Constant1'
2466:HANcoder_E407_CAN_COMM_TEST.c ****        *  Gain: '<S113>/Gain'
2467:HANcoder_E407_CAN_COMM_TEST.c ****        */
2468:HANcoder_E407_CAN_COMM_TEST.c ****       if ((2.0 < 0.0) && (rtb_Fix1 > floor(rtb_Fix1))) {
2469:HANcoder_E407_CAN_COMM_TEST.c ****         rtb_Fix1 = -pow(-2.0, rtb_Fix1);
2470:HANcoder_E407_CAN_COMM_TEST.c ****       } else {
2471:HANcoder_E407_CAN_COMM_TEST.c ****         rtb_Fix1 = pow(2.0, rtb_Fix1);
2472:HANcoder_E407_CAN_COMM_TEST.c ****       }
2473:HANcoder_E407_CAN_COMM_TEST.c **** 
2474:HANcoder_E407_CAN_COMM_TEST.c ****       /* End of Math: '<S113>/Power' */
2475:HANcoder_E407_CAN_COMM_TEST.c **** 
2476:HANcoder_E407_CAN_COMM_TEST.c ****       /* Math: '<S113>/Power2' incorporates:
2477:HANcoder_E407_CAN_COMM_TEST.c ****        *  Constant: '<S113>/Constant4'
2478:HANcoder_E407_CAN_COMM_TEST.c ****        *  Sum: '<S113>/Minus1'
2479:HANcoder_E407_CAN_COMM_TEST.c ****        */
2480:HANcoder_E407_CAN_COMM_TEST.c ****       if ((2.0 < 0.0) && (rtb_Fix1_tmp > floor(rtb_Fix1_tmp))) {
2481:HANcoder_E407_CAN_COMM_TEST.c ****         rtb_Power2 = -pow(-2.0, rtb_Fix1_tmp);
2482:HANcoder_E407_CAN_COMM_TEST.c ****       } else {
2483:HANcoder_E407_CAN_COMM_TEST.c ****         rtb_Power2 = pow(2.0, rtb_Fix1_tmp);
2484:HANcoder_E407_CAN_COMM_TEST.c ****       }
2485:HANcoder_E407_CAN_COMM_TEST.c **** 
2486:HANcoder_E407_CAN_COMM_TEST.c ****       /* End of Math: '<S113>/Power2' */
2487:HANcoder_E407_CAN_COMM_TEST.c **** 
2488:HANcoder_E407_CAN_COMM_TEST.c ****       /* Product: '<S113>/Divide' */
2489:HANcoder_E407_CAN_COMM_TEST.c ****       rtb_Fix1 = rtb_Minus / rtb_Fix1;
2490:HANcoder_E407_CAN_COMM_TEST.c **** 
2491:HANcoder_E407_CAN_COMM_TEST.c ****       /* Rounding: '<S113>/Fix1' */
2492:HANcoder_E407_CAN_COMM_TEST.c ****       if (rtb_Fix1 < 0.0) {
2493:HANcoder_E407_CAN_COMM_TEST.c ****         rtb_Fix1 = ceil(rtb_Fix1);
2494:HANcoder_E407_CAN_COMM_TEST.c ****       } else {
2495:HANcoder_E407_CAN_COMM_TEST.c ****         rtb_Fix1 = floor(rtb_Fix1);
2496:HANcoder_E407_CAN_COMM_TEST.c ****       }
2497:HANcoder_E407_CAN_COMM_TEST.c **** 
2498:HANcoder_E407_CAN_COMM_TEST.c ****       /* End of Rounding: '<S113>/Fix1' */
2499:HANcoder_E407_CAN_COMM_TEST.c **** 
2500:HANcoder_E407_CAN_COMM_TEST.c ****       /* DataTypeConversion: '<S113>/Cast' incorporates:
2501:HANcoder_E407_CAN_COMM_TEST.c ****        *  Constant: '<S113>/Constant'
2502:HANcoder_E407_CAN_COMM_TEST.c ****        *  RelationalOperator: '<S113>/GreaterThan'
2503:HANcoder_E407_CAN_COMM_TEST.c ****        */
2504:HANcoder_E407_CAN_COMM_TEST.c ****       rtb_Cast_h = (uint8_T)(rtb_Switch2 < 0.0);
2505:HANcoder_E407_CAN_COMM_TEST.c **** 
2506:HANcoder_E407_CAN_COMM_TEST.c ****       /* Outputs for Atomic SubSystem: '<S113>/Bit Shift' */
2507:HANcoder_E407_CAN_COMM_TEST.c ****       BitShift1(rtb_Cast_h, &rtB.BitShift_kb);
2508:HANcoder_E407_CAN_COMM_TEST.c **** 
2509:HANcoder_E407_CAN_COMM_TEST.c ****       /* End of Outputs for SubSystem: '<S113>/Bit Shift' */
2510:HANcoder_E407_CAN_COMM_TEST.c **** 
2511:HANcoder_E407_CAN_COMM_TEST.c ****       /* Math: '<S113>/Power1' incorporates:
2512:HANcoder_E407_CAN_COMM_TEST.c ****        *  Constant: '<S113>/Constant2'
2513:HANcoder_E407_CAN_COMM_TEST.c ****        *  Constant: '<S12>/Constant7'
2514:HANcoder_E407_CAN_COMM_TEST.c ****        */
2515:HANcoder_E407_CAN_COMM_TEST.c ****       if ((2.0 < 0.0) && (precision_CAN2 > floor(precision_CAN2))) {
2516:HANcoder_E407_CAN_COMM_TEST.c ****         rtb_Minus = -pow(-2.0, precision_CAN2);
2517:HANcoder_E407_CAN_COMM_TEST.c ****       } else {
2518:HANcoder_E407_CAN_COMM_TEST.c ****         rtb_Minus = pow(2.0, precision_CAN2);
2519:HANcoder_E407_CAN_COMM_TEST.c ****       }
2520:HANcoder_E407_CAN_COMM_TEST.c **** 
2521:HANcoder_E407_CAN_COMM_TEST.c ****       /* End of Math: '<S113>/Power1' */
2522:HANcoder_E407_CAN_COMM_TEST.c **** 
2523:HANcoder_E407_CAN_COMM_TEST.c ****       /* Sum: '<S113>/Plus' incorporates:
2524:HANcoder_E407_CAN_COMM_TEST.c ****        *  DataTypeConversion: '<S113>/Cast1'
2525:HANcoder_E407_CAN_COMM_TEST.c ****        *  DataTypeConversion: '<S113>/Cast2'
2526:HANcoder_E407_CAN_COMM_TEST.c ****        *  Product: '<S113>/Multiply'
2527:HANcoder_E407_CAN_COMM_TEST.c ****        */
2528:HANcoder_E407_CAN_COMM_TEST.c ****       Tx_coded2_CAN2 = (uint8_T)((uint32_T)(uint8_T)((uint32_T)(uint8_T)(rtb_Fix
2529:HANcoder_E407_CAN_COMM_TEST.c ****         * rtb_Minus) + rtB.BitShift_kb.y) + (uint8_T)rtb_Fix1);
2530:HANcoder_E407_CAN_COMM_TEST.c **** 
2531:HANcoder_E407_CAN_COMM_TEST.c ****       /* RelationalOperator: '<S113>/LessThanOrEqual' */
2532:HANcoder_E407_CAN_COMM_TEST.c ****       OF2_CAN2 = (rtb_Fix >= rtb_Power2);
2533:HANcoder_E407_CAN_COMM_TEST.c **** 
2534:HANcoder_E407_CAN_COMM_TEST.c ****       /* Switch: '<S114>/Switch2' incorporates:
2535:HANcoder_E407_CAN_COMM_TEST.c ****        *  Constant: '<S12>/Constant5'
2536:HANcoder_E407_CAN_COMM_TEST.c ****        *  Constant: '<S12>/Constant6'
2537:HANcoder_E407_CAN_COMM_TEST.c ****        *  Constant: '<S12>/magnitude10'
2538:HANcoder_E407_CAN_COMM_TEST.c ****        *  RelationalOperator: '<S114>/LessThanOrEqual1'
2539:HANcoder_E407_CAN_COMM_TEST.c ****        *  RelationalOperator: '<S114>/LessThanOrEqual2'
2540:HANcoder_E407_CAN_COMM_TEST.c ****        *  Switch: '<S114>/Switch1'
2541:HANcoder_E407_CAN_COMM_TEST.c ****        */
2542:HANcoder_E407_CAN_COMM_TEST.c ****       if (Tx_Max_CAN2 < Tx_Buffer_3_CAN2) {
2543:HANcoder_E407_CAN_COMM_TEST.c ****         /* Switch: '<S114>/Switch' */
2544:HANcoder_E407_CAN_COMM_TEST.c ****         rtb_Switch2 = Tx_Max_CAN2;
2545:HANcoder_E407_CAN_COMM_TEST.c ****       } else if (Tx_Buffer_3_CAN2 >= Tx_Min_CAN2) {
2546:HANcoder_E407_CAN_COMM_TEST.c ****         /* Switch: '<S114>/Switch1' */
2547:HANcoder_E407_CAN_COMM_TEST.c ****         rtb_Switch2 = Tx_Buffer_3_CAN2;
2548:HANcoder_E407_CAN_COMM_TEST.c ****       } else {
2549:HANcoder_E407_CAN_COMM_TEST.c ****         rtb_Switch2 = Tx_Min_CAN2;
2550:HANcoder_E407_CAN_COMM_TEST.c ****       }
2551:HANcoder_E407_CAN_COMM_TEST.c **** 
2552:HANcoder_E407_CAN_COMM_TEST.c ****       /* End of Switch: '<S114>/Switch2' */
2553:HANcoder_E407_CAN_COMM_TEST.c **** 
2554:HANcoder_E407_CAN_COMM_TEST.c ****       /* Abs: '<S114>/Abs' */
2555:HANcoder_E407_CAN_COMM_TEST.c ****       rtb_Power2 = fabs(rtb_Switch2);
2556:HANcoder_E407_CAN_COMM_TEST.c **** 
2557:HANcoder_E407_CAN_COMM_TEST.c ****       /* Rounding: '<S114>/Fix' */
2558:HANcoder_E407_CAN_COMM_TEST.c ****       rtb_Fix = floor(rtb_Power2);
2559:HANcoder_E407_CAN_COMM_TEST.c **** 
2560:HANcoder_E407_CAN_COMM_TEST.c ****       /* Sum: '<S114>/Minus' */
2561:HANcoder_E407_CAN_COMM_TEST.c ****       rtb_Minus = rtb_Power2 - rtb_Fix;
2562:HANcoder_E407_CAN_COMM_TEST.c **** 
2563:HANcoder_E407_CAN_COMM_TEST.c ****       /* Gain: '<S114>/Gain' incorporates:
2564:HANcoder_E407_CAN_COMM_TEST.c ****        *  Constant: '<S12>/Constant7'
2565:HANcoder_E407_CAN_COMM_TEST.c ****        */
2566:HANcoder_E407_CAN_COMM_TEST.c ****       rtb_Fix1 = (-1.0) * precision_CAN2;
2567:HANcoder_E407_CAN_COMM_TEST.c **** 
2568:HANcoder_E407_CAN_COMM_TEST.c ****       /* Math: '<S114>/Power' incorporates:
2569:HANcoder_E407_CAN_COMM_TEST.c ****        *  Constant: '<S114>/Constant1'
2570:HANcoder_E407_CAN_COMM_TEST.c ****        *  Gain: '<S114>/Gain'
2571:HANcoder_E407_CAN_COMM_TEST.c ****        */
2572:HANcoder_E407_CAN_COMM_TEST.c ****       if ((2.0 < 0.0) && (rtb_Fix1 > floor(rtb_Fix1))) {
2573:HANcoder_E407_CAN_COMM_TEST.c ****         rtb_Fix1 = -pow(-2.0, rtb_Fix1);
2574:HANcoder_E407_CAN_COMM_TEST.c ****       } else {
2575:HANcoder_E407_CAN_COMM_TEST.c ****         rtb_Fix1 = pow(2.0, rtb_Fix1);
2576:HANcoder_E407_CAN_COMM_TEST.c ****       }
2577:HANcoder_E407_CAN_COMM_TEST.c **** 
2578:HANcoder_E407_CAN_COMM_TEST.c ****       /* End of Math: '<S114>/Power' */
2579:HANcoder_E407_CAN_COMM_TEST.c **** 
2580:HANcoder_E407_CAN_COMM_TEST.c ****       /* Math: '<S114>/Power2' incorporates:
2581:HANcoder_E407_CAN_COMM_TEST.c ****        *  Constant: '<S114>/Constant4'
2582:HANcoder_E407_CAN_COMM_TEST.c ****        */
2583:HANcoder_E407_CAN_COMM_TEST.c ****       if ((2.0 < 0.0) && (rtb_Fix1_tmp > floor(rtb_Fix1_tmp))) {
2584:HANcoder_E407_CAN_COMM_TEST.c ****         rtb_Power2 = -pow(-2.0, rtb_Fix1_tmp);
2585:HANcoder_E407_CAN_COMM_TEST.c ****       } else {
2586:HANcoder_E407_CAN_COMM_TEST.c ****         rtb_Power2 = pow(2.0, rtb_Fix1_tmp);
2587:HANcoder_E407_CAN_COMM_TEST.c ****       }
2588:HANcoder_E407_CAN_COMM_TEST.c **** 
2589:HANcoder_E407_CAN_COMM_TEST.c ****       /* End of Math: '<S114>/Power2' */
2590:HANcoder_E407_CAN_COMM_TEST.c **** 
2591:HANcoder_E407_CAN_COMM_TEST.c ****       /* Product: '<S114>/Divide' */
2592:HANcoder_E407_CAN_COMM_TEST.c ****       rtb_Fix1 = rtb_Minus / rtb_Fix1;
2593:HANcoder_E407_CAN_COMM_TEST.c **** 
2594:HANcoder_E407_CAN_COMM_TEST.c ****       /* Rounding: '<S114>/Fix1' */
2595:HANcoder_E407_CAN_COMM_TEST.c ****       if (rtb_Fix1 < 0.0) {
2596:HANcoder_E407_CAN_COMM_TEST.c ****         rtb_Fix1 = ceil(rtb_Fix1);
2597:HANcoder_E407_CAN_COMM_TEST.c ****       } else {
2598:HANcoder_E407_CAN_COMM_TEST.c ****         rtb_Fix1 = floor(rtb_Fix1);
2599:HANcoder_E407_CAN_COMM_TEST.c ****       }
2600:HANcoder_E407_CAN_COMM_TEST.c **** 
2601:HANcoder_E407_CAN_COMM_TEST.c ****       /* End of Rounding: '<S114>/Fix1' */
2602:HANcoder_E407_CAN_COMM_TEST.c **** 
2603:HANcoder_E407_CAN_COMM_TEST.c ****       /* DataTypeConversion: '<S114>/Cast' incorporates:
2604:HANcoder_E407_CAN_COMM_TEST.c ****        *  Constant: '<S114>/Constant'
2605:HANcoder_E407_CAN_COMM_TEST.c ****        *  RelationalOperator: '<S114>/GreaterThan'
2606:HANcoder_E407_CAN_COMM_TEST.c ****        */
2607:HANcoder_E407_CAN_COMM_TEST.c ****       rtb_Cast_ga = (uint8_T)(rtb_Switch2 < 0.0);
2608:HANcoder_E407_CAN_COMM_TEST.c **** 
2609:HANcoder_E407_CAN_COMM_TEST.c ****       /* Outputs for Atomic SubSystem: '<S114>/Bit Shift' */
2610:HANcoder_E407_CAN_COMM_TEST.c ****       BitShift1(rtb_Cast_ga, &rtB.BitShift_dt);
2611:HANcoder_E407_CAN_COMM_TEST.c **** 
2612:HANcoder_E407_CAN_COMM_TEST.c ****       /* End of Outputs for SubSystem: '<S114>/Bit Shift' */
2613:HANcoder_E407_CAN_COMM_TEST.c **** 
2614:HANcoder_E407_CAN_COMM_TEST.c ****       /* Math: '<S114>/Power1' incorporates:
2615:HANcoder_E407_CAN_COMM_TEST.c ****        *  Constant: '<S114>/Constant2'
2616:HANcoder_E407_CAN_COMM_TEST.c ****        *  Constant: '<S12>/Constant7'
2617:HANcoder_E407_CAN_COMM_TEST.c ****        */
2618:HANcoder_E407_CAN_COMM_TEST.c ****       if ((2.0 < 0.0) && (precision_CAN2 > floor(precision_CAN2))) {
2619:HANcoder_E407_CAN_COMM_TEST.c ****         rtb_Minus = -pow(-2.0, precision_CAN2);
2620:HANcoder_E407_CAN_COMM_TEST.c ****       } else {
2621:HANcoder_E407_CAN_COMM_TEST.c ****         rtb_Minus = pow(2.0, precision_CAN2);
2622:HANcoder_E407_CAN_COMM_TEST.c ****       }
2623:HANcoder_E407_CAN_COMM_TEST.c **** 
2624:HANcoder_E407_CAN_COMM_TEST.c ****       /* End of Math: '<S114>/Power1' */
2625:HANcoder_E407_CAN_COMM_TEST.c **** 
2626:HANcoder_E407_CAN_COMM_TEST.c ****       /* Sum: '<S114>/Plus' incorporates:
2627:HANcoder_E407_CAN_COMM_TEST.c ****        *  DataTypeConversion: '<S114>/Cast1'
2628:HANcoder_E407_CAN_COMM_TEST.c ****        *  DataTypeConversion: '<S114>/Cast2'
2629:HANcoder_E407_CAN_COMM_TEST.c ****        *  Product: '<S114>/Multiply'
2630:HANcoder_E407_CAN_COMM_TEST.c ****        */
2631:HANcoder_E407_CAN_COMM_TEST.c ****       Tx_coded3_CAN2 = (uint8_T)((uint32_T)(uint8_T)((uint32_T)(uint8_T)(rtb_Fix
2632:HANcoder_E407_CAN_COMM_TEST.c ****         * rtb_Minus) + rtB.BitShift_dt.y) + (uint8_T)rtb_Fix1);
2633:HANcoder_E407_CAN_COMM_TEST.c **** 
2634:HANcoder_E407_CAN_COMM_TEST.c ****       /* RelationalOperator: '<S114>/LessThanOrEqual' */
2635:HANcoder_E407_CAN_COMM_TEST.c ****       OF3_CAN2 = (rtb_Fix >= rtb_Power2);
2636:HANcoder_E407_CAN_COMM_TEST.c **** 
2637:HANcoder_E407_CAN_COMM_TEST.c ****       /* Switch: '<S115>/Switch2' incorporates:
2638:HANcoder_E407_CAN_COMM_TEST.c ****        *  Constant: '<S12>/Constant5'
2639:HANcoder_E407_CAN_COMM_TEST.c ****        *  Constant: '<S12>/Constant6'
2640:HANcoder_E407_CAN_COMM_TEST.c ****        *  Constant: '<S12>/magnitude11'
2641:HANcoder_E407_CAN_COMM_TEST.c ****        *  RelationalOperator: '<S115>/LessThanOrEqual1'
2642:HANcoder_E407_CAN_COMM_TEST.c ****        *  RelationalOperator: '<S115>/LessThanOrEqual2'
2643:HANcoder_E407_CAN_COMM_TEST.c ****        *  Switch: '<S115>/Switch1'
2644:HANcoder_E407_CAN_COMM_TEST.c ****        */
2645:HANcoder_E407_CAN_COMM_TEST.c ****       if (Tx_Max_CAN2 < Tx_Buffer_4_CAN2) {
2646:HANcoder_E407_CAN_COMM_TEST.c ****         /* Switch: '<S115>/Switch' */
2647:HANcoder_E407_CAN_COMM_TEST.c ****         rtb_Switch2 = Tx_Max_CAN2;
2648:HANcoder_E407_CAN_COMM_TEST.c ****       } else if (Tx_Buffer_4_CAN2 >= Tx_Min_CAN2) {
2649:HANcoder_E407_CAN_COMM_TEST.c ****         /* Switch: '<S115>/Switch1' */
2650:HANcoder_E407_CAN_COMM_TEST.c ****         rtb_Switch2 = Tx_Buffer_4_CAN2;
2651:HANcoder_E407_CAN_COMM_TEST.c ****       } else {
2652:HANcoder_E407_CAN_COMM_TEST.c ****         rtb_Switch2 = Tx_Min_CAN2;
2653:HANcoder_E407_CAN_COMM_TEST.c ****       }
2654:HANcoder_E407_CAN_COMM_TEST.c **** 
2655:HANcoder_E407_CAN_COMM_TEST.c ****       /* End of Switch: '<S115>/Switch2' */
2656:HANcoder_E407_CAN_COMM_TEST.c **** 
2657:HANcoder_E407_CAN_COMM_TEST.c ****       /* Abs: '<S115>/Abs' */
2658:HANcoder_E407_CAN_COMM_TEST.c ****       rtb_Power2 = fabs(rtb_Switch2);
2659:HANcoder_E407_CAN_COMM_TEST.c **** 
2660:HANcoder_E407_CAN_COMM_TEST.c ****       /* Rounding: '<S115>/Fix' */
2661:HANcoder_E407_CAN_COMM_TEST.c ****       rtb_Fix = floor(rtb_Power2);
2662:HANcoder_E407_CAN_COMM_TEST.c **** 
2663:HANcoder_E407_CAN_COMM_TEST.c ****       /* Sum: '<S115>/Minus' */
2664:HANcoder_E407_CAN_COMM_TEST.c ****       rtb_Minus = rtb_Power2 - rtb_Fix;
2665:HANcoder_E407_CAN_COMM_TEST.c **** 
2666:HANcoder_E407_CAN_COMM_TEST.c ****       /* Gain: '<S115>/Gain' incorporates:
2667:HANcoder_E407_CAN_COMM_TEST.c ****        *  Constant: '<S12>/Constant7'
2668:HANcoder_E407_CAN_COMM_TEST.c ****        */
2669:HANcoder_E407_CAN_COMM_TEST.c ****       rtb_Fix1 = (-1.0) * precision_CAN2;
2670:HANcoder_E407_CAN_COMM_TEST.c **** 
2671:HANcoder_E407_CAN_COMM_TEST.c ****       /* Math: '<S115>/Power' incorporates:
2672:HANcoder_E407_CAN_COMM_TEST.c ****        *  Constant: '<S115>/Constant1'
2673:HANcoder_E407_CAN_COMM_TEST.c ****        *  Gain: '<S115>/Gain'
2674:HANcoder_E407_CAN_COMM_TEST.c ****        */
2675:HANcoder_E407_CAN_COMM_TEST.c ****       if ((2.0 < 0.0) && (rtb_Fix1 > floor(rtb_Fix1))) {
2676:HANcoder_E407_CAN_COMM_TEST.c ****         rtb_Fix1 = -pow(-2.0, rtb_Fix1);
2677:HANcoder_E407_CAN_COMM_TEST.c ****       } else {
2678:HANcoder_E407_CAN_COMM_TEST.c ****         rtb_Fix1 = pow(2.0, rtb_Fix1);
2679:HANcoder_E407_CAN_COMM_TEST.c ****       }
2680:HANcoder_E407_CAN_COMM_TEST.c **** 
2681:HANcoder_E407_CAN_COMM_TEST.c ****       /* End of Math: '<S115>/Power' */
2682:HANcoder_E407_CAN_COMM_TEST.c **** 
2683:HANcoder_E407_CAN_COMM_TEST.c ****       /* Math: '<S115>/Power2' incorporates:
2684:HANcoder_E407_CAN_COMM_TEST.c ****        *  Constant: '<S115>/Constant4'
2685:HANcoder_E407_CAN_COMM_TEST.c ****        */
2686:HANcoder_E407_CAN_COMM_TEST.c ****       if ((2.0 < 0.0) && (rtb_Fix1_tmp > floor(rtb_Fix1_tmp))) {
2687:HANcoder_E407_CAN_COMM_TEST.c ****         rtb_Power2 = -pow(-2.0, rtb_Fix1_tmp);
2688:HANcoder_E407_CAN_COMM_TEST.c ****       } else {
2689:HANcoder_E407_CAN_COMM_TEST.c ****         rtb_Power2 = pow(2.0, rtb_Fix1_tmp);
2690:HANcoder_E407_CAN_COMM_TEST.c ****       }
2691:HANcoder_E407_CAN_COMM_TEST.c **** 
2692:HANcoder_E407_CAN_COMM_TEST.c ****       /* End of Math: '<S115>/Power2' */
2693:HANcoder_E407_CAN_COMM_TEST.c **** 
2694:HANcoder_E407_CAN_COMM_TEST.c ****       /* Product: '<S115>/Divide' */
2695:HANcoder_E407_CAN_COMM_TEST.c ****       rtb_Fix1 = rtb_Minus / rtb_Fix1;
2696:HANcoder_E407_CAN_COMM_TEST.c **** 
2697:HANcoder_E407_CAN_COMM_TEST.c ****       /* Rounding: '<S115>/Fix1' */
2698:HANcoder_E407_CAN_COMM_TEST.c ****       if (rtb_Fix1 < 0.0) {
2699:HANcoder_E407_CAN_COMM_TEST.c ****         rtb_Fix1 = ceil(rtb_Fix1);
2700:HANcoder_E407_CAN_COMM_TEST.c ****       } else {
2701:HANcoder_E407_CAN_COMM_TEST.c ****         rtb_Fix1 = floor(rtb_Fix1);
2702:HANcoder_E407_CAN_COMM_TEST.c ****       }
2703:HANcoder_E407_CAN_COMM_TEST.c **** 
2704:HANcoder_E407_CAN_COMM_TEST.c ****       /* End of Rounding: '<S115>/Fix1' */
2705:HANcoder_E407_CAN_COMM_TEST.c **** 
2706:HANcoder_E407_CAN_COMM_TEST.c ****       /* DataTypeConversion: '<S115>/Cast' incorporates:
2707:HANcoder_E407_CAN_COMM_TEST.c ****        *  Constant: '<S115>/Constant'
2708:HANcoder_E407_CAN_COMM_TEST.c ****        *  RelationalOperator: '<S115>/GreaterThan'
2709:HANcoder_E407_CAN_COMM_TEST.c ****        */
2710:HANcoder_E407_CAN_COMM_TEST.c ****       rtb_Cast_o = (uint8_T)(rtb_Switch2 < 0.0);
2711:HANcoder_E407_CAN_COMM_TEST.c **** 
2712:HANcoder_E407_CAN_COMM_TEST.c ****       /* Outputs for Atomic SubSystem: '<S115>/Bit Shift' */
2713:HANcoder_E407_CAN_COMM_TEST.c ****       BitShift1(rtb_Cast_o, &rtB.BitShift_ks);
2714:HANcoder_E407_CAN_COMM_TEST.c **** 
2715:HANcoder_E407_CAN_COMM_TEST.c ****       /* End of Outputs for SubSystem: '<S115>/Bit Shift' */
2716:HANcoder_E407_CAN_COMM_TEST.c **** 
2717:HANcoder_E407_CAN_COMM_TEST.c ****       /* Math: '<S115>/Power1' incorporates:
2718:HANcoder_E407_CAN_COMM_TEST.c ****        *  Constant: '<S115>/Constant2'
2719:HANcoder_E407_CAN_COMM_TEST.c ****        *  Constant: '<S12>/Constant7'
2720:HANcoder_E407_CAN_COMM_TEST.c ****        */
2721:HANcoder_E407_CAN_COMM_TEST.c ****       if ((2.0 < 0.0) && (precision_CAN2 > floor(precision_CAN2))) {
2722:HANcoder_E407_CAN_COMM_TEST.c ****         rtb_Minus = -pow(-2.0, precision_CAN2);
2723:HANcoder_E407_CAN_COMM_TEST.c ****       } else {
2724:HANcoder_E407_CAN_COMM_TEST.c ****         rtb_Minus = pow(2.0, precision_CAN2);
2725:HANcoder_E407_CAN_COMM_TEST.c ****       }
2726:HANcoder_E407_CAN_COMM_TEST.c **** 
2727:HANcoder_E407_CAN_COMM_TEST.c ****       /* End of Math: '<S115>/Power1' */
2728:HANcoder_E407_CAN_COMM_TEST.c **** 
2729:HANcoder_E407_CAN_COMM_TEST.c ****       /* Sum: '<S115>/Plus' incorporates:
2730:HANcoder_E407_CAN_COMM_TEST.c ****        *  DataTypeConversion: '<S115>/Cast1'
2731:HANcoder_E407_CAN_COMM_TEST.c ****        *  DataTypeConversion: '<S115>/Cast2'
2732:HANcoder_E407_CAN_COMM_TEST.c ****        *  Product: '<S115>/Multiply'
2733:HANcoder_E407_CAN_COMM_TEST.c ****        */
2734:HANcoder_E407_CAN_COMM_TEST.c ****       Tx_coded4_CAN2 = (uint8_T)((uint32_T)(uint8_T)((uint32_T)(uint8_T)(rtb_Fix
2735:HANcoder_E407_CAN_COMM_TEST.c ****         * rtb_Minus) + rtB.BitShift_ks.y) + (uint8_T)rtb_Fix1);
2736:HANcoder_E407_CAN_COMM_TEST.c **** 
2737:HANcoder_E407_CAN_COMM_TEST.c ****       /* RelationalOperator: '<S115>/LessThanOrEqual' */
2738:HANcoder_E407_CAN_COMM_TEST.c ****       OF4_CAN2 = (rtb_Fix >= rtb_Power2);
2739:HANcoder_E407_CAN_COMM_TEST.c **** 
2740:HANcoder_E407_CAN_COMM_TEST.c ****       /* Switch: '<S116>/Switch2' incorporates:
2741:HANcoder_E407_CAN_COMM_TEST.c ****        *  Constant: '<S12>/Constant5'
2742:HANcoder_E407_CAN_COMM_TEST.c ****        *  Constant: '<S12>/Constant6'
2743:HANcoder_E407_CAN_COMM_TEST.c ****        *  Constant: '<S12>/magnitude12'
2744:HANcoder_E407_CAN_COMM_TEST.c ****        *  RelationalOperator: '<S116>/LessThanOrEqual1'
2745:HANcoder_E407_CAN_COMM_TEST.c ****        *  RelationalOperator: '<S116>/LessThanOrEqual2'
2746:HANcoder_E407_CAN_COMM_TEST.c ****        *  Switch: '<S116>/Switch1'
2747:HANcoder_E407_CAN_COMM_TEST.c ****        */
2748:HANcoder_E407_CAN_COMM_TEST.c ****       if (Tx_Max_CAN2 < Tx_Buffer_5_CAN2) {
2749:HANcoder_E407_CAN_COMM_TEST.c ****         /* Switch: '<S116>/Switch' */
2750:HANcoder_E407_CAN_COMM_TEST.c ****         rtb_Switch2 = Tx_Max_CAN2;
2751:HANcoder_E407_CAN_COMM_TEST.c ****       } else if (Tx_Buffer_5_CAN2 >= Tx_Min_CAN2) {
2752:HANcoder_E407_CAN_COMM_TEST.c ****         /* Switch: '<S116>/Switch1' */
2753:HANcoder_E407_CAN_COMM_TEST.c ****         rtb_Switch2 = Tx_Buffer_5_CAN2;
2754:HANcoder_E407_CAN_COMM_TEST.c ****       } else {
2755:HANcoder_E407_CAN_COMM_TEST.c ****         rtb_Switch2 = Tx_Min_CAN2;
2756:HANcoder_E407_CAN_COMM_TEST.c ****       }
2757:HANcoder_E407_CAN_COMM_TEST.c **** 
2758:HANcoder_E407_CAN_COMM_TEST.c ****       /* End of Switch: '<S116>/Switch2' */
2759:HANcoder_E407_CAN_COMM_TEST.c **** 
2760:HANcoder_E407_CAN_COMM_TEST.c ****       /* Abs: '<S116>/Abs' */
2761:HANcoder_E407_CAN_COMM_TEST.c ****       rtb_Power2 = fabs(rtb_Switch2);
2762:HANcoder_E407_CAN_COMM_TEST.c **** 
2763:HANcoder_E407_CAN_COMM_TEST.c ****       /* Rounding: '<S116>/Fix' */
2764:HANcoder_E407_CAN_COMM_TEST.c ****       rtb_Fix = floor(rtb_Power2);
2765:HANcoder_E407_CAN_COMM_TEST.c **** 
2766:HANcoder_E407_CAN_COMM_TEST.c ****       /* Sum: '<S116>/Minus' */
2767:HANcoder_E407_CAN_COMM_TEST.c ****       rtb_Minus = rtb_Power2 - rtb_Fix;
2768:HANcoder_E407_CAN_COMM_TEST.c **** 
2769:HANcoder_E407_CAN_COMM_TEST.c ****       /* Gain: '<S116>/Gain' incorporates:
2770:HANcoder_E407_CAN_COMM_TEST.c ****        *  Constant: '<S12>/Constant7'
2771:HANcoder_E407_CAN_COMM_TEST.c ****        */
2772:HANcoder_E407_CAN_COMM_TEST.c ****       rtb_Fix1 = (-1.0) * precision_CAN2;
2773:HANcoder_E407_CAN_COMM_TEST.c **** 
2774:HANcoder_E407_CAN_COMM_TEST.c ****       /* Math: '<S116>/Power' incorporates:
2775:HANcoder_E407_CAN_COMM_TEST.c ****        *  Constant: '<S116>/Constant1'
2776:HANcoder_E407_CAN_COMM_TEST.c ****        *  Gain: '<S116>/Gain'
2777:HANcoder_E407_CAN_COMM_TEST.c ****        */
2778:HANcoder_E407_CAN_COMM_TEST.c ****       if ((2.0 < 0.0) && (rtb_Fix1 > floor(rtb_Fix1))) {
2779:HANcoder_E407_CAN_COMM_TEST.c ****         rtb_Fix1 = -pow(-2.0, rtb_Fix1);
2780:HANcoder_E407_CAN_COMM_TEST.c ****       } else {
2781:HANcoder_E407_CAN_COMM_TEST.c ****         rtb_Fix1 = pow(2.0, rtb_Fix1);
2782:HANcoder_E407_CAN_COMM_TEST.c ****       }
2783:HANcoder_E407_CAN_COMM_TEST.c **** 
2784:HANcoder_E407_CAN_COMM_TEST.c ****       /* End of Math: '<S116>/Power' */
2785:HANcoder_E407_CAN_COMM_TEST.c **** 
2786:HANcoder_E407_CAN_COMM_TEST.c ****       /* Math: '<S116>/Power2' incorporates:
2787:HANcoder_E407_CAN_COMM_TEST.c ****        *  Constant: '<S116>/Constant4'
2788:HANcoder_E407_CAN_COMM_TEST.c ****        */
2789:HANcoder_E407_CAN_COMM_TEST.c ****       if ((2.0 < 0.0) && (rtb_Fix1_tmp > floor(rtb_Fix1_tmp))) {
2790:HANcoder_E407_CAN_COMM_TEST.c ****         rtb_Power2 = -pow(-2.0, rtb_Fix1_tmp);
2791:HANcoder_E407_CAN_COMM_TEST.c ****       } else {
2792:HANcoder_E407_CAN_COMM_TEST.c ****         rtb_Power2 = pow(2.0, rtb_Fix1_tmp);
2793:HANcoder_E407_CAN_COMM_TEST.c ****       }
2794:HANcoder_E407_CAN_COMM_TEST.c **** 
2795:HANcoder_E407_CAN_COMM_TEST.c ****       /* End of Math: '<S116>/Power2' */
2796:HANcoder_E407_CAN_COMM_TEST.c **** 
2797:HANcoder_E407_CAN_COMM_TEST.c ****       /* Product: '<S116>/Divide' */
2798:HANcoder_E407_CAN_COMM_TEST.c ****       rtb_Fix1 = rtb_Minus / rtb_Fix1;
2799:HANcoder_E407_CAN_COMM_TEST.c **** 
2800:HANcoder_E407_CAN_COMM_TEST.c ****       /* Rounding: '<S116>/Fix1' */
2801:HANcoder_E407_CAN_COMM_TEST.c ****       if (rtb_Fix1 < 0.0) {
2802:HANcoder_E407_CAN_COMM_TEST.c ****         rtb_Fix1 = ceil(rtb_Fix1);
2803:HANcoder_E407_CAN_COMM_TEST.c ****       } else {
2804:HANcoder_E407_CAN_COMM_TEST.c ****         rtb_Fix1 = floor(rtb_Fix1);
2805:HANcoder_E407_CAN_COMM_TEST.c ****       }
2806:HANcoder_E407_CAN_COMM_TEST.c **** 
2807:HANcoder_E407_CAN_COMM_TEST.c ****       /* End of Rounding: '<S116>/Fix1' */
2808:HANcoder_E407_CAN_COMM_TEST.c **** 
2809:HANcoder_E407_CAN_COMM_TEST.c ****       /* DataTypeConversion: '<S116>/Cast' incorporates:
2810:HANcoder_E407_CAN_COMM_TEST.c ****        *  Constant: '<S116>/Constant'
2811:HANcoder_E407_CAN_COMM_TEST.c ****        *  RelationalOperator: '<S116>/GreaterThan'
2812:HANcoder_E407_CAN_COMM_TEST.c ****        */
2813:HANcoder_E407_CAN_COMM_TEST.c ****       rtb_Cast_f = (uint8_T)(rtb_Switch2 < 0.0);
2814:HANcoder_E407_CAN_COMM_TEST.c **** 
2815:HANcoder_E407_CAN_COMM_TEST.c ****       /* Outputs for Atomic SubSystem: '<S116>/Bit Shift' */
2816:HANcoder_E407_CAN_COMM_TEST.c ****       BitShift1(rtb_Cast_f, &rtB.BitShift_ai);
2817:HANcoder_E407_CAN_COMM_TEST.c **** 
2818:HANcoder_E407_CAN_COMM_TEST.c ****       /* End of Outputs for SubSystem: '<S116>/Bit Shift' */
2819:HANcoder_E407_CAN_COMM_TEST.c **** 
2820:HANcoder_E407_CAN_COMM_TEST.c ****       /* Math: '<S116>/Power1' incorporates:
2821:HANcoder_E407_CAN_COMM_TEST.c ****        *  Constant: '<S116>/Constant2'
2822:HANcoder_E407_CAN_COMM_TEST.c ****        *  Constant: '<S12>/Constant7'
2823:HANcoder_E407_CAN_COMM_TEST.c ****        */
2824:HANcoder_E407_CAN_COMM_TEST.c ****       if ((2.0 < 0.0) && (precision_CAN2 > floor(precision_CAN2))) {
2825:HANcoder_E407_CAN_COMM_TEST.c ****         rtb_Minus = -pow(-2.0, precision_CAN2);
2826:HANcoder_E407_CAN_COMM_TEST.c ****       } else {
2827:HANcoder_E407_CAN_COMM_TEST.c ****         rtb_Minus = pow(2.0, precision_CAN2);
2828:HANcoder_E407_CAN_COMM_TEST.c ****       }
2829:HANcoder_E407_CAN_COMM_TEST.c **** 
2830:HANcoder_E407_CAN_COMM_TEST.c ****       /* End of Math: '<S116>/Power1' */
2831:HANcoder_E407_CAN_COMM_TEST.c **** 
2832:HANcoder_E407_CAN_COMM_TEST.c ****       /* Sum: '<S116>/Plus' incorporates:
2833:HANcoder_E407_CAN_COMM_TEST.c ****        *  DataTypeConversion: '<S116>/Cast1'
2834:HANcoder_E407_CAN_COMM_TEST.c ****        *  DataTypeConversion: '<S116>/Cast2'
2835:HANcoder_E407_CAN_COMM_TEST.c ****        *  Product: '<S116>/Multiply'
2836:HANcoder_E407_CAN_COMM_TEST.c ****        */
2837:HANcoder_E407_CAN_COMM_TEST.c ****       Tx_coded5_CAN2 = (uint8_T)((uint32_T)(uint8_T)((uint32_T)(uint8_T)(rtb_Fix
2838:HANcoder_E407_CAN_COMM_TEST.c ****         * rtb_Minus) + rtB.BitShift_ai.y) + (uint8_T)rtb_Fix1);
2839:HANcoder_E407_CAN_COMM_TEST.c **** 
2840:HANcoder_E407_CAN_COMM_TEST.c ****       /* RelationalOperator: '<S116>/LessThanOrEqual' */
2841:HANcoder_E407_CAN_COMM_TEST.c ****       OF5_CAN2 = (rtb_Fix >= rtb_Power2);
2842:HANcoder_E407_CAN_COMM_TEST.c **** 
2843:HANcoder_E407_CAN_COMM_TEST.c ****       /* Switch: '<S117>/Switch2' incorporates:
2844:HANcoder_E407_CAN_COMM_TEST.c ****        *  Constant: '<S12>/Constant5'
2845:HANcoder_E407_CAN_COMM_TEST.c ****        *  Constant: '<S12>/Constant6'
2846:HANcoder_E407_CAN_COMM_TEST.c ****        *  Constant: '<S12>/magnitude13'
2847:HANcoder_E407_CAN_COMM_TEST.c ****        *  RelationalOperator: '<S117>/LessThanOrEqual1'
2848:HANcoder_E407_CAN_COMM_TEST.c ****        *  RelationalOperator: '<S117>/LessThanOrEqual2'
2849:HANcoder_E407_CAN_COMM_TEST.c ****        *  Switch: '<S117>/Switch1'
2850:HANcoder_E407_CAN_COMM_TEST.c ****        */
2851:HANcoder_E407_CAN_COMM_TEST.c ****       if (Tx_Max_CAN2 < Tx_Buffer_6_CAN2) {
2852:HANcoder_E407_CAN_COMM_TEST.c ****         /* Switch: '<S117>/Switch' */
2853:HANcoder_E407_CAN_COMM_TEST.c ****         rtb_Switch2 = Tx_Max_CAN2;
2854:HANcoder_E407_CAN_COMM_TEST.c ****       } else if (Tx_Buffer_6_CAN2 >= Tx_Min_CAN2) {
2855:HANcoder_E407_CAN_COMM_TEST.c ****         /* Switch: '<S117>/Switch1' */
2856:HANcoder_E407_CAN_COMM_TEST.c ****         rtb_Switch2 = Tx_Buffer_6_CAN2;
2857:HANcoder_E407_CAN_COMM_TEST.c ****       } else {
2858:HANcoder_E407_CAN_COMM_TEST.c ****         rtb_Switch2 = Tx_Min_CAN2;
2859:HANcoder_E407_CAN_COMM_TEST.c ****       }
2860:HANcoder_E407_CAN_COMM_TEST.c **** 
2861:HANcoder_E407_CAN_COMM_TEST.c ****       /* End of Switch: '<S117>/Switch2' */
2862:HANcoder_E407_CAN_COMM_TEST.c **** 
2863:HANcoder_E407_CAN_COMM_TEST.c ****       /* Abs: '<S117>/Abs' */
2864:HANcoder_E407_CAN_COMM_TEST.c ****       rtb_Power2 = fabs(rtb_Switch2);
2865:HANcoder_E407_CAN_COMM_TEST.c **** 
2866:HANcoder_E407_CAN_COMM_TEST.c ****       /* Rounding: '<S117>/Fix' */
2867:HANcoder_E407_CAN_COMM_TEST.c ****       rtb_Fix = floor(rtb_Power2);
2868:HANcoder_E407_CAN_COMM_TEST.c **** 
2869:HANcoder_E407_CAN_COMM_TEST.c ****       /* Sum: '<S117>/Minus' */
2870:HANcoder_E407_CAN_COMM_TEST.c ****       rtb_Minus = rtb_Power2 - rtb_Fix;
2871:HANcoder_E407_CAN_COMM_TEST.c **** 
2872:HANcoder_E407_CAN_COMM_TEST.c ****       /* Gain: '<S117>/Gain' incorporates:
2873:HANcoder_E407_CAN_COMM_TEST.c ****        *  Constant: '<S12>/Constant7'
2874:HANcoder_E407_CAN_COMM_TEST.c ****        */
2875:HANcoder_E407_CAN_COMM_TEST.c ****       rtb_Fix1 = (-1.0) * precision_CAN2;
2876:HANcoder_E407_CAN_COMM_TEST.c **** 
2877:HANcoder_E407_CAN_COMM_TEST.c ****       /* Math: '<S117>/Power' incorporates:
2878:HANcoder_E407_CAN_COMM_TEST.c ****        *  Constant: '<S117>/Constant1'
2879:HANcoder_E407_CAN_COMM_TEST.c ****        *  Gain: '<S117>/Gain'
2880:HANcoder_E407_CAN_COMM_TEST.c ****        */
2881:HANcoder_E407_CAN_COMM_TEST.c ****       if ((2.0 < 0.0) && (rtb_Fix1 > floor(rtb_Fix1))) {
2882:HANcoder_E407_CAN_COMM_TEST.c ****         rtb_Fix1 = -pow(-2.0, rtb_Fix1);
2883:HANcoder_E407_CAN_COMM_TEST.c ****       } else {
2884:HANcoder_E407_CAN_COMM_TEST.c ****         rtb_Fix1 = pow(2.0, rtb_Fix1);
2885:HANcoder_E407_CAN_COMM_TEST.c ****       }
2886:HANcoder_E407_CAN_COMM_TEST.c **** 
2887:HANcoder_E407_CAN_COMM_TEST.c ****       /* End of Math: '<S117>/Power' */
2888:HANcoder_E407_CAN_COMM_TEST.c **** 
2889:HANcoder_E407_CAN_COMM_TEST.c ****       /* Math: '<S117>/Power2' incorporates:
2890:HANcoder_E407_CAN_COMM_TEST.c ****        *  Constant: '<S117>/Constant4'
2891:HANcoder_E407_CAN_COMM_TEST.c ****        */
2892:HANcoder_E407_CAN_COMM_TEST.c ****       if ((2.0 < 0.0) && (rtb_Fix1_tmp > floor(rtb_Fix1_tmp))) {
2893:HANcoder_E407_CAN_COMM_TEST.c ****         rtb_Power2 = -pow(-2.0, rtb_Fix1_tmp);
2894:HANcoder_E407_CAN_COMM_TEST.c ****       } else {
2895:HANcoder_E407_CAN_COMM_TEST.c ****         rtb_Power2 = pow(2.0, rtb_Fix1_tmp);
2896:HANcoder_E407_CAN_COMM_TEST.c ****       }
2897:HANcoder_E407_CAN_COMM_TEST.c **** 
2898:HANcoder_E407_CAN_COMM_TEST.c ****       /* End of Math: '<S117>/Power2' */
2899:HANcoder_E407_CAN_COMM_TEST.c **** 
2900:HANcoder_E407_CAN_COMM_TEST.c ****       /* Product: '<S117>/Divide' */
2901:HANcoder_E407_CAN_COMM_TEST.c ****       rtb_Fix1 = rtb_Minus / rtb_Fix1;
2902:HANcoder_E407_CAN_COMM_TEST.c **** 
2903:HANcoder_E407_CAN_COMM_TEST.c ****       /* Rounding: '<S117>/Fix1' */
2904:HANcoder_E407_CAN_COMM_TEST.c ****       if (rtb_Fix1 < 0.0) {
2905:HANcoder_E407_CAN_COMM_TEST.c ****         rtb_Fix1 = ceil(rtb_Fix1);
2906:HANcoder_E407_CAN_COMM_TEST.c ****       } else {
2907:HANcoder_E407_CAN_COMM_TEST.c ****         rtb_Fix1 = floor(rtb_Fix1);
2908:HANcoder_E407_CAN_COMM_TEST.c ****       }
2909:HANcoder_E407_CAN_COMM_TEST.c **** 
2910:HANcoder_E407_CAN_COMM_TEST.c ****       /* End of Rounding: '<S117>/Fix1' */
2911:HANcoder_E407_CAN_COMM_TEST.c **** 
2912:HANcoder_E407_CAN_COMM_TEST.c ****       /* DataTypeConversion: '<S117>/Cast' incorporates:
2913:HANcoder_E407_CAN_COMM_TEST.c ****        *  Constant: '<S117>/Constant'
2914:HANcoder_E407_CAN_COMM_TEST.c ****        *  RelationalOperator: '<S117>/GreaterThan'
2915:HANcoder_E407_CAN_COMM_TEST.c ****        */
2916:HANcoder_E407_CAN_COMM_TEST.c ****       rtb_Cast_k2 = (uint8_T)(rtb_Switch2 < 0.0);
2917:HANcoder_E407_CAN_COMM_TEST.c **** 
2918:HANcoder_E407_CAN_COMM_TEST.c ****       /* Outputs for Atomic SubSystem: '<S117>/Bit Shift' */
2919:HANcoder_E407_CAN_COMM_TEST.c ****       BitShift1(rtb_Cast_k2, &rtB.BitShift_l);
2920:HANcoder_E407_CAN_COMM_TEST.c **** 
2921:HANcoder_E407_CAN_COMM_TEST.c ****       /* End of Outputs for SubSystem: '<S117>/Bit Shift' */
2922:HANcoder_E407_CAN_COMM_TEST.c **** 
2923:HANcoder_E407_CAN_COMM_TEST.c ****       /* Math: '<S117>/Power1' incorporates:
2924:HANcoder_E407_CAN_COMM_TEST.c ****        *  Constant: '<S117>/Constant2'
2925:HANcoder_E407_CAN_COMM_TEST.c ****        *  Constant: '<S12>/Constant7'
2926:HANcoder_E407_CAN_COMM_TEST.c ****        */
2927:HANcoder_E407_CAN_COMM_TEST.c ****       if ((2.0 < 0.0) && (precision_CAN2 > floor(precision_CAN2))) {
2928:HANcoder_E407_CAN_COMM_TEST.c ****         rtb_Minus = -pow(-2.0, precision_CAN2);
2929:HANcoder_E407_CAN_COMM_TEST.c ****       } else {
2930:HANcoder_E407_CAN_COMM_TEST.c ****         rtb_Minus = pow(2.0, precision_CAN2);
2931:HANcoder_E407_CAN_COMM_TEST.c ****       }
2932:HANcoder_E407_CAN_COMM_TEST.c **** 
2933:HANcoder_E407_CAN_COMM_TEST.c ****       /* End of Math: '<S117>/Power1' */
2934:HANcoder_E407_CAN_COMM_TEST.c **** 
2935:HANcoder_E407_CAN_COMM_TEST.c ****       /* Sum: '<S117>/Plus' incorporates:
2936:HANcoder_E407_CAN_COMM_TEST.c ****        *  DataTypeConversion: '<S117>/Cast1'
2937:HANcoder_E407_CAN_COMM_TEST.c ****        *  DataTypeConversion: '<S117>/Cast2'
2938:HANcoder_E407_CAN_COMM_TEST.c ****        *  Product: '<S117>/Multiply'
2939:HANcoder_E407_CAN_COMM_TEST.c ****        */
2940:HANcoder_E407_CAN_COMM_TEST.c ****       Tx_coded6_CAN2 = (uint8_T)((uint32_T)(uint8_T)((uint32_T)(uint8_T)(rtb_Fix
2941:HANcoder_E407_CAN_COMM_TEST.c ****         * rtb_Minus) + rtB.BitShift_l.y) + (uint8_T)rtb_Fix1);
2942:HANcoder_E407_CAN_COMM_TEST.c **** 
2943:HANcoder_E407_CAN_COMM_TEST.c ****       /* RelationalOperator: '<S117>/LessThanOrEqual' */
2944:HANcoder_E407_CAN_COMM_TEST.c ****       OF6_CAN2 = (rtb_Fix >= rtb_Power2);
2945:HANcoder_E407_CAN_COMM_TEST.c **** 
2946:HANcoder_E407_CAN_COMM_TEST.c ****       /* Switch: '<S118>/Switch2' incorporates:
2947:HANcoder_E407_CAN_COMM_TEST.c ****        *  Constant: '<S12>/Constant5'
2948:HANcoder_E407_CAN_COMM_TEST.c ****        *  Constant: '<S12>/Constant6'
2949:HANcoder_E407_CAN_COMM_TEST.c ****        *  Constant: '<S12>/magnitude14'
2950:HANcoder_E407_CAN_COMM_TEST.c ****        *  RelationalOperator: '<S118>/LessThanOrEqual1'
2951:HANcoder_E407_CAN_COMM_TEST.c ****        *  RelationalOperator: '<S118>/LessThanOrEqual2'
2952:HANcoder_E407_CAN_COMM_TEST.c ****        *  Switch: '<S118>/Switch1'
2953:HANcoder_E407_CAN_COMM_TEST.c ****        */
2954:HANcoder_E407_CAN_COMM_TEST.c ****       if (Tx_Max_CAN2 < Tx_Buffer_7_CAN2) {
2955:HANcoder_E407_CAN_COMM_TEST.c ****         /* Switch: '<S118>/Switch' */
2956:HANcoder_E407_CAN_COMM_TEST.c ****         rtb_Switch2 = Tx_Max_CAN2;
2957:HANcoder_E407_CAN_COMM_TEST.c ****       } else if (Tx_Buffer_7_CAN2 >= Tx_Min_CAN2) {
2958:HANcoder_E407_CAN_COMM_TEST.c ****         /* Switch: '<S118>/Switch1' */
2959:HANcoder_E407_CAN_COMM_TEST.c ****         rtb_Switch2 = Tx_Buffer_7_CAN2;
2960:HANcoder_E407_CAN_COMM_TEST.c ****       } else {
2961:HANcoder_E407_CAN_COMM_TEST.c ****         rtb_Switch2 = Tx_Min_CAN2;
2962:HANcoder_E407_CAN_COMM_TEST.c ****       }
2963:HANcoder_E407_CAN_COMM_TEST.c **** 
2964:HANcoder_E407_CAN_COMM_TEST.c ****       /* End of Switch: '<S118>/Switch2' */
2965:HANcoder_E407_CAN_COMM_TEST.c **** 
2966:HANcoder_E407_CAN_COMM_TEST.c ****       /* Abs: '<S118>/Abs' */
2967:HANcoder_E407_CAN_COMM_TEST.c ****       rtb_Power2 = fabs(rtb_Switch2);
2968:HANcoder_E407_CAN_COMM_TEST.c **** 
2969:HANcoder_E407_CAN_COMM_TEST.c ****       /* Rounding: '<S118>/Fix' */
2970:HANcoder_E407_CAN_COMM_TEST.c ****       rtb_Fix = floor(rtb_Power2);
2971:HANcoder_E407_CAN_COMM_TEST.c **** 
2972:HANcoder_E407_CAN_COMM_TEST.c ****       /* Sum: '<S118>/Minus' */
2973:HANcoder_E407_CAN_COMM_TEST.c ****       rtb_Minus = rtb_Power2 - rtb_Fix;
2974:HANcoder_E407_CAN_COMM_TEST.c **** 
2975:HANcoder_E407_CAN_COMM_TEST.c ****       /* Gain: '<S118>/Gain' incorporates:
2976:HANcoder_E407_CAN_COMM_TEST.c ****        *  Constant: '<S12>/Constant7'
2977:HANcoder_E407_CAN_COMM_TEST.c ****        */
2978:HANcoder_E407_CAN_COMM_TEST.c ****       rtb_Fix1 = (-1.0) * precision_CAN2;
2979:HANcoder_E407_CAN_COMM_TEST.c **** 
2980:HANcoder_E407_CAN_COMM_TEST.c ****       /* Math: '<S118>/Power' incorporates:
2981:HANcoder_E407_CAN_COMM_TEST.c ****        *  Constant: '<S118>/Constant1'
2982:HANcoder_E407_CAN_COMM_TEST.c ****        *  Gain: '<S118>/Gain'
2983:HANcoder_E407_CAN_COMM_TEST.c ****        */
2984:HANcoder_E407_CAN_COMM_TEST.c ****       if ((2.0 < 0.0) && (rtb_Fix1 > floor(rtb_Fix1))) {
2985:HANcoder_E407_CAN_COMM_TEST.c ****         rtb_Fix1 = -pow(-2.0, rtb_Fix1);
2986:HANcoder_E407_CAN_COMM_TEST.c ****       } else {
2987:HANcoder_E407_CAN_COMM_TEST.c ****         rtb_Fix1 = pow(2.0, rtb_Fix1);
2988:HANcoder_E407_CAN_COMM_TEST.c ****       }
2989:HANcoder_E407_CAN_COMM_TEST.c **** 
2990:HANcoder_E407_CAN_COMM_TEST.c ****       /* End of Math: '<S118>/Power' */
2991:HANcoder_E407_CAN_COMM_TEST.c **** 
2992:HANcoder_E407_CAN_COMM_TEST.c ****       /* Math: '<S118>/Power2' incorporates:
2993:HANcoder_E407_CAN_COMM_TEST.c ****        *  Constant: '<S118>/Constant4'
2994:HANcoder_E407_CAN_COMM_TEST.c ****        */
2995:HANcoder_E407_CAN_COMM_TEST.c ****       if ((2.0 < 0.0) && (rtb_Fix1_tmp > floor(rtb_Fix1_tmp))) {
2996:HANcoder_E407_CAN_COMM_TEST.c ****         rtb_Power2 = -pow(-2.0, rtb_Fix1_tmp);
2997:HANcoder_E407_CAN_COMM_TEST.c ****       } else {
2998:HANcoder_E407_CAN_COMM_TEST.c ****         rtb_Power2 = pow(2.0, rtb_Fix1_tmp);
2999:HANcoder_E407_CAN_COMM_TEST.c ****       }
3000:HANcoder_E407_CAN_COMM_TEST.c **** 
3001:HANcoder_E407_CAN_COMM_TEST.c ****       /* End of Math: '<S118>/Power2' */
3002:HANcoder_E407_CAN_COMM_TEST.c **** 
3003:HANcoder_E407_CAN_COMM_TEST.c ****       /* Product: '<S118>/Divide' */
3004:HANcoder_E407_CAN_COMM_TEST.c ****       rtb_Fix1 = rtb_Minus / rtb_Fix1;
3005:HANcoder_E407_CAN_COMM_TEST.c **** 
3006:HANcoder_E407_CAN_COMM_TEST.c ****       /* Rounding: '<S118>/Fix1' */
3007:HANcoder_E407_CAN_COMM_TEST.c ****       if (rtb_Fix1 < 0.0) {
3008:HANcoder_E407_CAN_COMM_TEST.c ****         rtb_Fix1 = ceil(rtb_Fix1);
3009:HANcoder_E407_CAN_COMM_TEST.c ****       } else {
3010:HANcoder_E407_CAN_COMM_TEST.c ****         rtb_Fix1 = floor(rtb_Fix1);
3011:HANcoder_E407_CAN_COMM_TEST.c ****       }
3012:HANcoder_E407_CAN_COMM_TEST.c **** 
3013:HANcoder_E407_CAN_COMM_TEST.c ****       /* End of Rounding: '<S118>/Fix1' */
3014:HANcoder_E407_CAN_COMM_TEST.c **** 
3015:HANcoder_E407_CAN_COMM_TEST.c ****       /* DataTypeConversion: '<S118>/Cast' incorporates:
3016:HANcoder_E407_CAN_COMM_TEST.c ****        *  Constant: '<S118>/Constant'
3017:HANcoder_E407_CAN_COMM_TEST.c ****        *  RelationalOperator: '<S118>/GreaterThan'
3018:HANcoder_E407_CAN_COMM_TEST.c ****        */
3019:HANcoder_E407_CAN_COMM_TEST.c ****       rtb_Cast_m = (uint8_T)(rtb_Switch2 < 0.0);
3020:HANcoder_E407_CAN_COMM_TEST.c **** 
3021:HANcoder_E407_CAN_COMM_TEST.c ****       /* Outputs for Atomic SubSystem: '<S118>/Bit Shift' */
3022:HANcoder_E407_CAN_COMM_TEST.c ****       BitShift1(rtb_Cast_m, &rtB.BitShift_de);
3023:HANcoder_E407_CAN_COMM_TEST.c **** 
3024:HANcoder_E407_CAN_COMM_TEST.c ****       /* End of Outputs for SubSystem: '<S118>/Bit Shift' */
3025:HANcoder_E407_CAN_COMM_TEST.c **** 
3026:HANcoder_E407_CAN_COMM_TEST.c ****       /* Math: '<S118>/Power1' incorporates:
3027:HANcoder_E407_CAN_COMM_TEST.c ****        *  Constant: '<S118>/Constant2'
3028:HANcoder_E407_CAN_COMM_TEST.c ****        *  Constant: '<S12>/Constant7'
3029:HANcoder_E407_CAN_COMM_TEST.c ****        */
3030:HANcoder_E407_CAN_COMM_TEST.c ****       if ((2.0 < 0.0) && (precision_CAN2 > floor(precision_CAN2))) {
3031:HANcoder_E407_CAN_COMM_TEST.c ****         rtb_Minus = -pow(-2.0, precision_CAN2);
3032:HANcoder_E407_CAN_COMM_TEST.c ****       } else {
3033:HANcoder_E407_CAN_COMM_TEST.c ****         rtb_Minus = pow(2.0, precision_CAN2);
3034:HANcoder_E407_CAN_COMM_TEST.c ****       }
3035:HANcoder_E407_CAN_COMM_TEST.c **** 
3036:HANcoder_E407_CAN_COMM_TEST.c ****       /* End of Math: '<S118>/Power1' */
3037:HANcoder_E407_CAN_COMM_TEST.c **** 
3038:HANcoder_E407_CAN_COMM_TEST.c ****       /* Sum: '<S118>/Plus' incorporates:
3039:HANcoder_E407_CAN_COMM_TEST.c ****        *  DataTypeConversion: '<S118>/Cast1'
3040:HANcoder_E407_CAN_COMM_TEST.c ****        *  DataTypeConversion: '<S118>/Cast2'
3041:HANcoder_E407_CAN_COMM_TEST.c ****        *  Product: '<S118>/Multiply'
3042:HANcoder_E407_CAN_COMM_TEST.c ****        */
3043:HANcoder_E407_CAN_COMM_TEST.c ****       Tx_coded7_CAN2 = (uint8_T)((uint32_T)(uint8_T)((uint32_T)(uint8_T)(rtb_Fix
3044:HANcoder_E407_CAN_COMM_TEST.c ****         * rtb_Minus) + rtB.BitShift_de.y) + (uint8_T)rtb_Fix1);
3045:HANcoder_E407_CAN_COMM_TEST.c **** 
3046:HANcoder_E407_CAN_COMM_TEST.c ****       /* RelationalOperator: '<S118>/LessThanOrEqual' */
3047:HANcoder_E407_CAN_COMM_TEST.c ****       OF7_CAN2 = (rtb_Fix >= rtb_Power2);
3048:HANcoder_E407_CAN_COMM_TEST.c **** 
3049:HANcoder_E407_CAN_COMM_TEST.c ****       /* Switch: '<S119>/Switch2' incorporates:
3050:HANcoder_E407_CAN_COMM_TEST.c ****        *  Constant: '<S12>/Constant5'
3051:HANcoder_E407_CAN_COMM_TEST.c ****        *  Constant: '<S12>/Constant6'
3052:HANcoder_E407_CAN_COMM_TEST.c ****        *  Constant: '<S12>/magnitude15'
3053:HANcoder_E407_CAN_COMM_TEST.c ****        *  RelationalOperator: '<S119>/LessThanOrEqual1'
3054:HANcoder_E407_CAN_COMM_TEST.c ****        *  RelationalOperator: '<S119>/LessThanOrEqual2'
3055:HANcoder_E407_CAN_COMM_TEST.c ****        *  Switch: '<S119>/Switch1'
3056:HANcoder_E407_CAN_COMM_TEST.c ****        */
3057:HANcoder_E407_CAN_COMM_TEST.c ****       if (Tx_Max_CAN2 < Tx_Buffer_8_CAN2) {
3058:HANcoder_E407_CAN_COMM_TEST.c ****         /* Switch: '<S119>/Switch' */
3059:HANcoder_E407_CAN_COMM_TEST.c ****         rtb_Switch2 = Tx_Max_CAN2;
3060:HANcoder_E407_CAN_COMM_TEST.c ****       } else if (Tx_Buffer_8_CAN2 >= Tx_Min_CAN2) {
3061:HANcoder_E407_CAN_COMM_TEST.c ****         /* Switch: '<S119>/Switch1' */
3062:HANcoder_E407_CAN_COMM_TEST.c ****         rtb_Switch2 = Tx_Buffer_8_CAN2;
3063:HANcoder_E407_CAN_COMM_TEST.c ****       } else {
3064:HANcoder_E407_CAN_COMM_TEST.c ****         rtb_Switch2 = Tx_Min_CAN2;
3065:HANcoder_E407_CAN_COMM_TEST.c ****       }
3066:HANcoder_E407_CAN_COMM_TEST.c **** 
3067:HANcoder_E407_CAN_COMM_TEST.c ****       /* End of Switch: '<S119>/Switch2' */
3068:HANcoder_E407_CAN_COMM_TEST.c **** 
3069:HANcoder_E407_CAN_COMM_TEST.c ****       /* Abs: '<S119>/Abs' */
3070:HANcoder_E407_CAN_COMM_TEST.c ****       rtb_Power2 = fabs(rtb_Switch2);
3071:HANcoder_E407_CAN_COMM_TEST.c **** 
3072:HANcoder_E407_CAN_COMM_TEST.c ****       /* Rounding: '<S119>/Fix' */
3073:HANcoder_E407_CAN_COMM_TEST.c ****       rtb_Fix = floor(rtb_Power2);
3074:HANcoder_E407_CAN_COMM_TEST.c **** 
3075:HANcoder_E407_CAN_COMM_TEST.c ****       /* Sum: '<S119>/Minus' */
3076:HANcoder_E407_CAN_COMM_TEST.c ****       rtb_Minus = rtb_Power2 - rtb_Fix;
3077:HANcoder_E407_CAN_COMM_TEST.c **** 
3078:HANcoder_E407_CAN_COMM_TEST.c ****       /* Gain: '<S119>/Gain' incorporates:
3079:HANcoder_E407_CAN_COMM_TEST.c ****        *  Constant: '<S12>/Constant7'
3080:HANcoder_E407_CAN_COMM_TEST.c ****        */
3081:HANcoder_E407_CAN_COMM_TEST.c ****       rtb_Fix1 = (-1.0) * precision_CAN2;
3082:HANcoder_E407_CAN_COMM_TEST.c **** 
3083:HANcoder_E407_CAN_COMM_TEST.c ****       /* Math: '<S119>/Power' incorporates:
3084:HANcoder_E407_CAN_COMM_TEST.c ****        *  Constant: '<S119>/Constant1'
3085:HANcoder_E407_CAN_COMM_TEST.c ****        *  Gain: '<S119>/Gain'
3086:HANcoder_E407_CAN_COMM_TEST.c ****        */
3087:HANcoder_E407_CAN_COMM_TEST.c ****       if ((2.0 < 0.0) && (rtb_Fix1 > floor(rtb_Fix1))) {
3088:HANcoder_E407_CAN_COMM_TEST.c ****         rtb_Fix1 = -pow(-2.0, rtb_Fix1);
3089:HANcoder_E407_CAN_COMM_TEST.c ****       } else {
3090:HANcoder_E407_CAN_COMM_TEST.c ****         rtb_Fix1 = pow(2.0, rtb_Fix1);
3091:HANcoder_E407_CAN_COMM_TEST.c ****       }
3092:HANcoder_E407_CAN_COMM_TEST.c **** 
3093:HANcoder_E407_CAN_COMM_TEST.c ****       /* End of Math: '<S119>/Power' */
3094:HANcoder_E407_CAN_COMM_TEST.c **** 
3095:HANcoder_E407_CAN_COMM_TEST.c ****       /* Math: '<S119>/Power2' incorporates:
3096:HANcoder_E407_CAN_COMM_TEST.c ****        *  Constant: '<S119>/Constant4'
3097:HANcoder_E407_CAN_COMM_TEST.c ****        */
3098:HANcoder_E407_CAN_COMM_TEST.c ****       if ((2.0 < 0.0) && (rtb_Fix1_tmp > floor(rtb_Fix1_tmp))) {
3099:HANcoder_E407_CAN_COMM_TEST.c ****         rtb_Power2 = -pow(-2.0, rtb_Fix1_tmp);
3100:HANcoder_E407_CAN_COMM_TEST.c ****       } else {
3101:HANcoder_E407_CAN_COMM_TEST.c ****         rtb_Power2 = pow(2.0, rtb_Fix1_tmp);
3102:HANcoder_E407_CAN_COMM_TEST.c ****       }
3103:HANcoder_E407_CAN_COMM_TEST.c **** 
3104:HANcoder_E407_CAN_COMM_TEST.c ****       /* End of Math: '<S119>/Power2' */
3105:HANcoder_E407_CAN_COMM_TEST.c **** 
3106:HANcoder_E407_CAN_COMM_TEST.c ****       /* Product: '<S119>/Divide' */
3107:HANcoder_E407_CAN_COMM_TEST.c ****       rtb_Fix1 = rtb_Minus / rtb_Fix1;
3108:HANcoder_E407_CAN_COMM_TEST.c **** 
3109:HANcoder_E407_CAN_COMM_TEST.c ****       /* Rounding: '<S119>/Fix1' */
3110:HANcoder_E407_CAN_COMM_TEST.c ****       if (rtb_Fix1 < 0.0) {
3111:HANcoder_E407_CAN_COMM_TEST.c ****         rtb_Fix1 = ceil(rtb_Fix1);
3112:HANcoder_E407_CAN_COMM_TEST.c ****       } else {
3113:HANcoder_E407_CAN_COMM_TEST.c ****         rtb_Fix1 = floor(rtb_Fix1);
3114:HANcoder_E407_CAN_COMM_TEST.c ****       }
3115:HANcoder_E407_CAN_COMM_TEST.c **** 
3116:HANcoder_E407_CAN_COMM_TEST.c ****       /* End of Rounding: '<S119>/Fix1' */
3117:HANcoder_E407_CAN_COMM_TEST.c **** 
3118:HANcoder_E407_CAN_COMM_TEST.c ****       /* DataTypeConversion: '<S119>/Cast' incorporates:
3119:HANcoder_E407_CAN_COMM_TEST.c ****        *  Constant: '<S119>/Constant'
3120:HANcoder_E407_CAN_COMM_TEST.c ****        *  RelationalOperator: '<S119>/GreaterThan'
3121:HANcoder_E407_CAN_COMM_TEST.c ****        */
3122:HANcoder_E407_CAN_COMM_TEST.c ****       rtb_Cast_g = (uint8_T)(rtb_Switch2 < 0.0);
3123:HANcoder_E407_CAN_COMM_TEST.c **** 
3124:HANcoder_E407_CAN_COMM_TEST.c ****       /* Outputs for Atomic SubSystem: '<S119>/Bit Shift' */
3125:HANcoder_E407_CAN_COMM_TEST.c ****       BitShift1(rtb_Cast_g, &rtB.BitShift_cx);
3126:HANcoder_E407_CAN_COMM_TEST.c **** 
3127:HANcoder_E407_CAN_COMM_TEST.c ****       /* End of Outputs for SubSystem: '<S119>/Bit Shift' */
3128:HANcoder_E407_CAN_COMM_TEST.c **** 
3129:HANcoder_E407_CAN_COMM_TEST.c ****       /* Math: '<S119>/Power1' incorporates:
3130:HANcoder_E407_CAN_COMM_TEST.c ****        *  Constant: '<S119>/Constant2'
3131:HANcoder_E407_CAN_COMM_TEST.c ****        *  Constant: '<S12>/Constant7'
3132:HANcoder_E407_CAN_COMM_TEST.c ****        */
3133:HANcoder_E407_CAN_COMM_TEST.c ****       if ((2.0 < 0.0) && (precision_CAN2 > floor(precision_CAN2))) {
3134:HANcoder_E407_CAN_COMM_TEST.c ****         rtb_Minus = -pow(-2.0, precision_CAN2);
3135:HANcoder_E407_CAN_COMM_TEST.c ****       } else {
3136:HANcoder_E407_CAN_COMM_TEST.c ****         rtb_Minus = pow(2.0, precision_CAN2);
3137:HANcoder_E407_CAN_COMM_TEST.c ****       }
3138:HANcoder_E407_CAN_COMM_TEST.c **** 
3139:HANcoder_E407_CAN_COMM_TEST.c ****       /* End of Math: '<S119>/Power1' */
3140:HANcoder_E407_CAN_COMM_TEST.c **** 
3141:HANcoder_E407_CAN_COMM_TEST.c ****       /* Sum: '<S119>/Plus' incorporates:
3142:HANcoder_E407_CAN_COMM_TEST.c ****        *  DataTypeConversion: '<S119>/Cast1'
3143:HANcoder_E407_CAN_COMM_TEST.c ****        *  DataTypeConversion: '<S119>/Cast2'
3144:HANcoder_E407_CAN_COMM_TEST.c ****        *  Product: '<S119>/Multiply'
3145:HANcoder_E407_CAN_COMM_TEST.c ****        */
3146:HANcoder_E407_CAN_COMM_TEST.c ****       Tx_coded8_CAN2 = (uint8_T)((uint32_T)(uint8_T)((uint32_T)(uint8_T)(rtb_Fix
3147:HANcoder_E407_CAN_COMM_TEST.c ****         * rtb_Minus) + rtB.BitShift_cx.y) + (uint8_T)rtb_Fix1);
3148:HANcoder_E407_CAN_COMM_TEST.c **** 
3149:HANcoder_E407_CAN_COMM_TEST.c ****       /* RelationalOperator: '<S119>/LessThanOrEqual' */
3150:HANcoder_E407_CAN_COMM_TEST.c ****       OF8_CAN2 = (rtb_Fix >= rtb_Power2);
3151:HANcoder_E407_CAN_COMM_TEST.c **** 
3152:HANcoder_E407_CAN_COMM_TEST.c ****       /* Switch: '<S127>/Switch2' incorporates:
3153:HANcoder_E407_CAN_COMM_TEST.c ****        *  Constant: '<S12>/Constant5'
3154:HANcoder_E407_CAN_COMM_TEST.c ****        *  Constant: '<S12>/Constant6'
3155:HANcoder_E407_CAN_COMM_TEST.c ****        *  Constant: '<S12>/magnitude8'
3156:HANcoder_E407_CAN_COMM_TEST.c ****        *  RelationalOperator: '<S127>/LessThanOrEqual1'
3157:HANcoder_E407_CAN_COMM_TEST.c ****        *  RelationalOperator: '<S127>/LessThanOrEqual2'
3158:HANcoder_E407_CAN_COMM_TEST.c ****        *  Switch: '<S127>/Switch1'
3159:HANcoder_E407_CAN_COMM_TEST.c ****        */
3160:HANcoder_E407_CAN_COMM_TEST.c ****       if (Tx_Max_CAN2 < Tx_Buffer_1_CAN2) {
3161:HANcoder_E407_CAN_COMM_TEST.c ****         /* Switch: '<S127>/Switch' */
3162:HANcoder_E407_CAN_COMM_TEST.c ****         rtb_Switch2 = Tx_Max_CAN2;
3163:HANcoder_E407_CAN_COMM_TEST.c ****       } else if (Tx_Buffer_1_CAN2 >= Tx_Min_CAN2) {
3164:HANcoder_E407_CAN_COMM_TEST.c ****         /* Switch: '<S127>/Switch1' */
3165:HANcoder_E407_CAN_COMM_TEST.c ****         rtb_Switch2 = Tx_Buffer_1_CAN2;
3166:HANcoder_E407_CAN_COMM_TEST.c ****       } else {
3167:HANcoder_E407_CAN_COMM_TEST.c ****         rtb_Switch2 = Tx_Min_CAN2;
3168:HANcoder_E407_CAN_COMM_TEST.c ****       }
3169:HANcoder_E407_CAN_COMM_TEST.c **** 
3170:HANcoder_E407_CAN_COMM_TEST.c ****       /* End of Switch: '<S127>/Switch2' */
3171:HANcoder_E407_CAN_COMM_TEST.c **** 
3172:HANcoder_E407_CAN_COMM_TEST.c ****       /* Abs: '<S127>/Abs' */
3173:HANcoder_E407_CAN_COMM_TEST.c ****       rtb_Power2 = fabs(rtb_Switch2);
3174:HANcoder_E407_CAN_COMM_TEST.c **** 
3175:HANcoder_E407_CAN_COMM_TEST.c ****       /* Rounding: '<S127>/Fix' */
3176:HANcoder_E407_CAN_COMM_TEST.c ****       rtb_Fix = floor(rtb_Power2);
3177:HANcoder_E407_CAN_COMM_TEST.c **** 
3178:HANcoder_E407_CAN_COMM_TEST.c ****       /* Sum: '<S127>/Minus' */
3179:HANcoder_E407_CAN_COMM_TEST.c ****       rtb_Minus = rtb_Power2 - rtb_Fix;
3180:HANcoder_E407_CAN_COMM_TEST.c **** 
3181:HANcoder_E407_CAN_COMM_TEST.c ****       /* Gain: '<S127>/Gain' incorporates:
3182:HANcoder_E407_CAN_COMM_TEST.c ****        *  Constant: '<S12>/Constant7'
3183:HANcoder_E407_CAN_COMM_TEST.c ****        */
3184:HANcoder_E407_CAN_COMM_TEST.c ****       rtb_Fix1 = (-1.0) * precision_CAN2;
3185:HANcoder_E407_CAN_COMM_TEST.c **** 
3186:HANcoder_E407_CAN_COMM_TEST.c ****       /* Math: '<S127>/Power' incorporates:
3187:HANcoder_E407_CAN_COMM_TEST.c ****        *  Constant: '<S127>/Constant1'
3188:HANcoder_E407_CAN_COMM_TEST.c ****        *  Gain: '<S127>/Gain'
3189:HANcoder_E407_CAN_COMM_TEST.c ****        */
3190:HANcoder_E407_CAN_COMM_TEST.c ****       if ((2.0 < 0.0) && (rtb_Fix1 > floor(rtb_Fix1))) {
3191:HANcoder_E407_CAN_COMM_TEST.c ****         rtb_Fix1 = -pow(-2.0, rtb_Fix1);
3192:HANcoder_E407_CAN_COMM_TEST.c ****       } else {
3193:HANcoder_E407_CAN_COMM_TEST.c ****         rtb_Fix1 = pow(2.0, rtb_Fix1);
3194:HANcoder_E407_CAN_COMM_TEST.c ****       }
3195:HANcoder_E407_CAN_COMM_TEST.c **** 
3196:HANcoder_E407_CAN_COMM_TEST.c ****       /* End of Math: '<S127>/Power' */
3197:HANcoder_E407_CAN_COMM_TEST.c **** 
3198:HANcoder_E407_CAN_COMM_TEST.c ****       /* Math: '<S127>/Power2' incorporates:
3199:HANcoder_E407_CAN_COMM_TEST.c ****        *  Constant: '<S127>/Constant4'
3200:HANcoder_E407_CAN_COMM_TEST.c ****        */
3201:HANcoder_E407_CAN_COMM_TEST.c ****       if ((2.0 < 0.0) && (rtb_Fix1_tmp > floor(rtb_Fix1_tmp))) {
3202:HANcoder_E407_CAN_COMM_TEST.c ****         rtb_Power2 = -pow(-2.0, rtb_Fix1_tmp);
3203:HANcoder_E407_CAN_COMM_TEST.c ****       } else {
3204:HANcoder_E407_CAN_COMM_TEST.c ****         rtb_Power2 = pow(2.0, rtb_Fix1_tmp);
3205:HANcoder_E407_CAN_COMM_TEST.c ****       }
3206:HANcoder_E407_CAN_COMM_TEST.c **** 
3207:HANcoder_E407_CAN_COMM_TEST.c ****       /* End of Math: '<S127>/Power2' */
3208:HANcoder_E407_CAN_COMM_TEST.c **** 
3209:HANcoder_E407_CAN_COMM_TEST.c ****       /* Product: '<S127>/Divide' */
3210:HANcoder_E407_CAN_COMM_TEST.c ****       rtb_Fix1 = rtb_Minus / rtb_Fix1;
3211:HANcoder_E407_CAN_COMM_TEST.c **** 
3212:HANcoder_E407_CAN_COMM_TEST.c ****       /* Rounding: '<S127>/Fix1' */
3213:HANcoder_E407_CAN_COMM_TEST.c ****       if (rtb_Fix1 < 0.0) {
3214:HANcoder_E407_CAN_COMM_TEST.c ****         rtb_Fix1 = ceil(rtb_Fix1);
3215:HANcoder_E407_CAN_COMM_TEST.c ****       } else {
3216:HANcoder_E407_CAN_COMM_TEST.c ****         rtb_Fix1 = floor(rtb_Fix1);
3217:HANcoder_E407_CAN_COMM_TEST.c ****       }
3218:HANcoder_E407_CAN_COMM_TEST.c **** 
3219:HANcoder_E407_CAN_COMM_TEST.c ****       /* End of Rounding: '<S127>/Fix1' */
3220:HANcoder_E407_CAN_COMM_TEST.c **** 
3221:HANcoder_E407_CAN_COMM_TEST.c ****       /* DataTypeConversion: '<S127>/Cast' incorporates:
3222:HANcoder_E407_CAN_COMM_TEST.c ****        *  Constant: '<S127>/Constant'
3223:HANcoder_E407_CAN_COMM_TEST.c ****        *  RelationalOperator: '<S127>/GreaterThan'
3224:HANcoder_E407_CAN_COMM_TEST.c ****        */
3225:HANcoder_E407_CAN_COMM_TEST.c ****       rtb_Cast_k = (uint8_T)(rtb_Switch2 < 0.0);
3226:HANcoder_E407_CAN_COMM_TEST.c **** 
3227:HANcoder_E407_CAN_COMM_TEST.c ****       /* Outputs for Atomic SubSystem: '<S127>/Bit Shift' */
3228:HANcoder_E407_CAN_COMM_TEST.c ****       BitShift1(rtb_Cast_k, &rtB.BitShift_aq);
3229:HANcoder_E407_CAN_COMM_TEST.c **** 
3230:HANcoder_E407_CAN_COMM_TEST.c ****       /* End of Outputs for SubSystem: '<S127>/Bit Shift' */
3231:HANcoder_E407_CAN_COMM_TEST.c **** 
3232:HANcoder_E407_CAN_COMM_TEST.c ****       /* Math: '<S127>/Power1' incorporates:
3233:HANcoder_E407_CAN_COMM_TEST.c ****        *  Constant: '<S127>/Constant2'
3234:HANcoder_E407_CAN_COMM_TEST.c ****        *  Constant: '<S12>/Constant7'
3235:HANcoder_E407_CAN_COMM_TEST.c ****        */
3236:HANcoder_E407_CAN_COMM_TEST.c ****       if ((2.0 < 0.0) && (precision_CAN2 > floor(precision_CAN2))) {
3237:HANcoder_E407_CAN_COMM_TEST.c ****         rtb_Minus = -pow(-2.0, precision_CAN2);
3238:HANcoder_E407_CAN_COMM_TEST.c ****       } else {
3239:HANcoder_E407_CAN_COMM_TEST.c ****         rtb_Minus = pow(2.0, precision_CAN2);
3240:HANcoder_E407_CAN_COMM_TEST.c ****       }
3241:HANcoder_E407_CAN_COMM_TEST.c **** 
3242:HANcoder_E407_CAN_COMM_TEST.c ****       /* End of Math: '<S127>/Power1' */
3243:HANcoder_E407_CAN_COMM_TEST.c **** 
3244:HANcoder_E407_CAN_COMM_TEST.c ****       /* Sum: '<S127>/Plus' incorporates:
3245:HANcoder_E407_CAN_COMM_TEST.c ****        *  DataTypeConversion: '<S127>/Cast1'
3246:HANcoder_E407_CAN_COMM_TEST.c ****        *  DataTypeConversion: '<S127>/Cast2'
3247:HANcoder_E407_CAN_COMM_TEST.c ****        *  Product: '<S127>/Multiply'
3248:HANcoder_E407_CAN_COMM_TEST.c ****        */
3249:HANcoder_E407_CAN_COMM_TEST.c ****       Tx_coded1_CAN2 = (uint8_T)((uint32_T)(uint8_T)((uint32_T)(uint8_T)(rtb_Fix
3250:HANcoder_E407_CAN_COMM_TEST.c ****         * rtb_Minus) + rtB.BitShift_aq.y) + (uint8_T)rtb_Fix1);
3251:HANcoder_E407_CAN_COMM_TEST.c **** 
3252:HANcoder_E407_CAN_COMM_TEST.c ****       /* RelationalOperator: '<S127>/LessThanOrEqual' */
3253:HANcoder_E407_CAN_COMM_TEST.c ****       OF1_CAN2 = (rtb_Fix >= rtb_Power2);
3254:HANcoder_E407_CAN_COMM_TEST.c **** 
3255:HANcoder_E407_CAN_COMM_TEST.c ****       /* DataTypeConversion: '<S12>/Data Type Conversion1' incorporates:
3256:HANcoder_E407_CAN_COMM_TEST.c ****        *  Constant: '<S12>/Constant'
3257:HANcoder_E407_CAN_COMM_TEST.c ****        */
3258:HANcoder_E407_CAN_COMM_TEST.c ****       Tx_ID_CAN1_s = (uint32_T)Tx_ID_CAN1;
3259:HANcoder_E407_CAN_COMM_TEST.c **** 
3260:HANcoder_E407_CAN_COMM_TEST.c ****       /* DataTypeConversion: '<S12>/Data Type Conversion2' incorporates:
3261:HANcoder_E407_CAN_COMM_TEST.c ****        *  Constant: '<S12>/Constant1'
3262:HANcoder_E407_CAN_COMM_TEST.c ****        */
3263:HANcoder_E407_CAN_COMM_TEST.c ****       Tx_ID_CAN2_s = (uint32_T)Tx_ID_CAN2;
3264:HANcoder_E407_CAN_COMM_TEST.c **** 
3265:HANcoder_E407_CAN_COMM_TEST.c ****       /* Update for M-S-Function: '<S110>/S-Function' */
3266:HANcoder_E407_CAN_COMM_TEST.c ****       {
3267:HANcoder_E407_CAN_COMM_TEST.c ****         /* prepare the data */
3268:HANcoder_E407_CAN_COMM_TEST.c ****         canTxData.uint8_T_info[0] = Tx_coded1_CAN1;
3269:HANcoder_E407_CAN_COMM_TEST.c ****         canTxData.uint8_T_info[1] = Tx_coded2_CAN1;
3270:HANcoder_E407_CAN_COMM_TEST.c ****         canTxData.uint8_T_info[2] = Tx_coded3_CAN1;
3271:HANcoder_E407_CAN_COMM_TEST.c ****         canTxData.uint8_T_info[3] = Tx_coded4_CAN1;
3272:HANcoder_E407_CAN_COMM_TEST.c ****         canTxData.uint8_T_info[4] = Tx_coded5_CAN1;
3273:HANcoder_E407_CAN_COMM_TEST.c ****         canTxData.uint8_T_info[5] = Tx_coded6_CAN1;
3274:HANcoder_E407_CAN_COMM_TEST.c ****         canTxData.uint8_T_info[6] = Tx_coded7_CAN1;
3275:HANcoder_E407_CAN_COMM_TEST.c ****         canTxData.uint8_T_info[7] = Tx_coded8_CAN1;
3276:HANcoder_E407_CAN_COMM_TEST.c **** 
3277:HANcoder_E407_CAN_COMM_TEST.c ****         /* send the data */
3278:HANcoder_E407_CAN_COMM_TEST.c ****         CanTransmit(0, constant_ID_TXCAN1, 8, &canTxData.uint8_T_info[0]);
3279:HANcoder_E407_CAN_COMM_TEST.c ****       }
3280:HANcoder_E407_CAN_COMM_TEST.c **** 
3281:HANcoder_E407_CAN_COMM_TEST.c ****       /* Update for M-S-Function: '<S111>/S-Function' */
3282:HANcoder_E407_CAN_COMM_TEST.c ****       {
3283:HANcoder_E407_CAN_COMM_TEST.c ****         /* prepare the data */
3284:HANcoder_E407_CAN_COMM_TEST.c ****         canTxData.uint8_T_info[0] = Tx_coded1_CAN2;
3285:HANcoder_E407_CAN_COMM_TEST.c ****         canTxData.uint8_T_info[1] = Tx_coded2_CAN2;
3286:HANcoder_E407_CAN_COMM_TEST.c ****         canTxData.uint8_T_info[2] = Tx_coded3_CAN2;
3287:HANcoder_E407_CAN_COMM_TEST.c ****         canTxData.uint8_T_info[3] = Tx_coded4_CAN2;
3288:HANcoder_E407_CAN_COMM_TEST.c ****         canTxData.uint8_T_info[4] = Tx_coded5_CAN2;
3289:HANcoder_E407_CAN_COMM_TEST.c ****         canTxData.uint8_T_info[5] = Tx_coded6_CAN2;
3290:HANcoder_E407_CAN_COMM_TEST.c ****         canTxData.uint8_T_info[6] = Tx_coded7_CAN2;
3291:HANcoder_E407_CAN_COMM_TEST.c ****         canTxData.uint8_T_info[7] = Tx_coded8_CAN2;
3292:HANcoder_E407_CAN_COMM_TEST.c **** 
3293:HANcoder_E407_CAN_COMM_TEST.c ****         /* send the data */
3294:HANcoder_E407_CAN_COMM_TEST.c ****         CanTransmit(1, constant_ID_TXCAN2, 8, &canTxData.uint8_T_info[0]);
3295:HANcoder_E407_CAN_COMM_TEST.c ****       }
3296:HANcoder_E407_CAN_COMM_TEST.c ****     } else {
3297:HANcoder_E407_CAN_COMM_TEST.c ****       if (rtDWork.TxCAN_MODE) {
3298:HANcoder_E407_CAN_COMM_TEST.c ****         rtDWork.TxCAN_MODE = false;
3299:HANcoder_E407_CAN_COMM_TEST.c ****       }
3300:HANcoder_E407_CAN_COMM_TEST.c ****     }
3301:HANcoder_E407_CAN_COMM_TEST.c **** 
3302:HANcoder_E407_CAN_COMM_TEST.c ****     /* End of Logic: '<S1>/AND3' */
3303:HANcoder_E407_CAN_COMM_TEST.c ****     /* End of Outputs for SubSystem: '<S1>/Tx CAN' */
3304:HANcoder_E407_CAN_COMM_TEST.c **** 
3305:HANcoder_E407_CAN_COMM_TEST.c ****     /* UnitDelay: '<S15>/Output' */
3306:HANcoder_E407_CAN_COMM_TEST.c ****     rtb_Output = rtDWork.Output_DSTATE;
3307:HANcoder_E407_CAN_COMM_TEST.c **** 
3308:HANcoder_E407_CAN_COMM_TEST.c ****     /* Sum: '<S17>/FixPt Sum1' incorporates:
3309:HANcoder_E407_CAN_COMM_TEST.c ****      *  Constant: '<S17>/FixPt Constant'
3310:HANcoder_E407_CAN_COMM_TEST.c ****      *  UnitDelay: '<S15>/Output'
3311:HANcoder_E407_CAN_COMM_TEST.c ****      */
3312:HANcoder_E407_CAN_COMM_TEST.c ****     rtb_FixPtSum1 = (uint8_T)((uint32_T)rtDWork.Output_DSTATE + ((uint8_T)1U));
3313:HANcoder_E407_CAN_COMM_TEST.c **** 
3314:HANcoder_E407_CAN_COMM_TEST.c ****     /* Switch: '<S18>/FixPt Switch' incorporates:
3315:HANcoder_E407_CAN_COMM_TEST.c ****      *  Constant: '<S18>/Constant'
3316:HANcoder_E407_CAN_COMM_TEST.c ****      */
3317:HANcoder_E407_CAN_COMM_TEST.c ****     if (rtb_FixPtSum1 > ((uint8_T)1U)) {
3318:HANcoder_E407_CAN_COMM_TEST.c ****       rtb_FixPtSum1 = ((uint8_T)0U);
3319:HANcoder_E407_CAN_COMM_TEST.c ****     }
3320:HANcoder_E407_CAN_COMM_TEST.c **** 
3321:HANcoder_E407_CAN_COMM_TEST.c ****     /* End of Switch: '<S18>/FixPt Switch' */
3322:HANcoder_E407_CAN_COMM_TEST.c ****   }
3323:HANcoder_E407_CAN_COMM_TEST.c **** 
3324:HANcoder_E407_CAN_COMM_TEST.c ****   if (rtM->Timing.TaskCounters.TID[2] == 0) {
 177              		.loc 1 3324 0
 178 0012 9AF80230 		ldrb	r3, [r10, #2]	@ zero_extendqisi2
 179 0016 002B     		cmp	r3, #0
 180 0018 3BD0     		beq	.L231
 181              	.L219:
3325:HANcoder_E407_CAN_COMM_TEST.c ****     /* UnitDelay: '<S16>/Output' */
3326:HANcoder_E407_CAN_COMM_TEST.c ****     rtB.Output = rtDWork.Output_DSTATE_k;
3327:HANcoder_E407_CAN_COMM_TEST.c **** 
3328:HANcoder_E407_CAN_COMM_TEST.c ****     /* Sum: '<S19>/FixPt Sum1' incorporates:
3329:HANcoder_E407_CAN_COMM_TEST.c ****      *  Constant: '<S19>/FixPt Constant'
3330:HANcoder_E407_CAN_COMM_TEST.c ****      */
3331:HANcoder_E407_CAN_COMM_TEST.c ****     rtb_FixPtSum1_b = (uint8_T)((uint32_T)rtB.Output + ((uint8_T)1U));
3332:HANcoder_E407_CAN_COMM_TEST.c **** 
3333:HANcoder_E407_CAN_COMM_TEST.c ****     /* Switch: '<S20>/FixPt Switch' incorporates:
3334:HANcoder_E407_CAN_COMM_TEST.c ****      *  Constant: '<S20>/Constant'
3335:HANcoder_E407_CAN_COMM_TEST.c ****      */
3336:HANcoder_E407_CAN_COMM_TEST.c ****     if (rtb_FixPtSum1_b > ((uint8_T)1U)) {
3337:HANcoder_E407_CAN_COMM_TEST.c ****       rtb_FixPtSum1_b = ((uint8_T)0U);
3338:HANcoder_E407_CAN_COMM_TEST.c ****     }
3339:HANcoder_E407_CAN_COMM_TEST.c **** 
3340:HANcoder_E407_CAN_COMM_TEST.c ****     /* End of Switch: '<S20>/FixPt Switch' */
3341:HANcoder_E407_CAN_COMM_TEST.c ****   }
3342:HANcoder_E407_CAN_COMM_TEST.c **** 
3343:HANcoder_E407_CAN_COMM_TEST.c ****   if (rtM->Timing.TaskCounters.TID[1] == 0) {
3344:HANcoder_E407_CAN_COMM_TEST.c ****     /* Switch: '<S2>/Switch' incorporates:
3345:HANcoder_E407_CAN_COMM_TEST.c ****      *  Constant: '<S2>/Constant'
3346:HANcoder_E407_CAN_COMM_TEST.c ****      *  Logic: '<S2>/Logical Operator'
3347:HANcoder_E407_CAN_COMM_TEST.c ****      */
3348:HANcoder_E407_CAN_COMM_TEST.c ****     if (HANtuneOverride || WKUP_button) {
3349:HANcoder_E407_CAN_COMM_TEST.c ****       /* DataTypeConversion: '<S2>/Data Type Conversion' */
3350:HANcoder_E407_CAN_COMM_TEST.c ****       LedValue = (rtb_Output != 0);
3351:HANcoder_E407_CAN_COMM_TEST.c ****     } else {
3352:HANcoder_E407_CAN_COMM_TEST.c ****       /* DataTypeConversion: '<S2>/Data Type Conversion' */
3353:HANcoder_E407_CAN_COMM_TEST.c ****       LedValue = (rtB.Output != 0);
3354:HANcoder_E407_CAN_COMM_TEST.c ****     }
3355:HANcoder_E407_CAN_COMM_TEST.c **** 
3356:HANcoder_E407_CAN_COMM_TEST.c ****     /* End of Switch: '<S2>/Switch' */
3357:HANcoder_E407_CAN_COMM_TEST.c ****   }
3358:HANcoder_E407_CAN_COMM_TEST.c **** 
3359:HANcoder_E407_CAN_COMM_TEST.c ****   /* M-S-Function: '<S107>/Level-2 M-file S-Function' */
3360:HANcoder_E407_CAN_COMM_TEST.c ****   /* read the current CPU load */
3361:HANcoder_E407_CAN_COMM_TEST.c ****   SI_CPUload = OsGetCpuLoad();
 182              		.loc 1 3361 0
 183 001a FFF7FEFF 		bl	OsGetCpuLoad
 184              	.LVL13:
 185 001e 264B     		ldr	r3, .L420
 186 0020 1870     		strb	r0, [r3]
3362:HANcoder_E407_CAN_COMM_TEST.c **** 
3363:HANcoder_E407_CAN_COMM_TEST.c ****   /* M-S-Function: '<S108>/Level-2 M-file S-Function' */
3364:HANcoder_E407_CAN_COMM_TEST.c ****   /* read the free heap size */
3365:HANcoder_E407_CAN_COMM_TEST.c ****   SI_FreeHeap = OsGetFreeHeapSize();
 187              		.loc 1 3365 0
 188 0022 FFF7FEFF 		bl	OsGetFreeHeapSize
 189              	.LVL14:
 190 0026 254B     		ldr	r3, .L420+4
 191 0028 1860     		str	r0, [r3]
3366:HANcoder_E407_CAN_COMM_TEST.c **** 
3367:HANcoder_E407_CAN_COMM_TEST.c ****   /* M-S-Function: '<S109>/Level-2 M-file S-Function' */
3368:HANcoder_E407_CAN_COMM_TEST.c ****   /* read the task's free stack size */
3369:HANcoder_E407_CAN_COMM_TEST.c ****   SI_FreeStack = OsGetTaskFreeStackSize("AppCtrlTask");
 192              		.loc 1 3369 0
 193 002a 2548     		ldr	r0, .L420+8
 194 002c FFF7FEFF 		bl	OsGetTaskFreeStackSize
 195              	.LVL15:
 196 0030 244A     		ldr	r2, .L420+12
3370:HANcoder_E407_CAN_COMM_TEST.c ****   if (rtM->Timing.TaskCounters.TID[1] == 0) {
 197              		.loc 1 3370 0
 198 0032 9AF80130 		ldrb	r3, [r10, #1]	@ zero_extendqisi2
3369:HANcoder_E407_CAN_COMM_TEST.c ****   if (rtM->Timing.TaskCounters.TID[1] == 0) {
 199              		.loc 1 3369 0
 200 0036 1060     		str	r0, [r2]
 201              		.loc 1 3370 0
 202 0038 53B9     		cbnz	r3, .L222
3371:HANcoder_E407_CAN_COMM_TEST.c ****     /* Update for M-S-Function: '<S22>/Level-2 M-file S-Function' */
3372:HANcoder_E407_CAN_COMM_TEST.c ****     /* update digital output */
3373:HANcoder_E407_CAN_COMM_TEST.c ****     if (LedValue == 0) {
 203              		.loc 1 3373 0
 204 003a 234B     		ldr	r3, .L420+16
 205 003c 1978     		ldrb	r1, [r3]	@ zero_extendqisi2
 206 003e 0029     		cmp	r1, #0
 207 0040 37D1     		bne	.L334
 208              	.L332:
3374:HANcoder_E407_CAN_COMM_TEST.c ****       DigoutSet(DIGOUT_PORTC_PIN13, DIGOUT_LOW);
3375:HANcoder_E407_CAN_COMM_TEST.c ****     } else {
3376:HANcoder_E407_CAN_COMM_TEST.c ****       DigoutSet(DIGOUT_PORTC_PIN13, DIGOUT_HIGH);
 209              		.loc 1 3376 0
 210 0042 4720     		movs	r0, #71
 211 0044 FFF7FEFF 		bl	DigoutSet
 212              	.LVL16:
3377:HANcoder_E407_CAN_COMM_TEST.c ****     }
3378:HANcoder_E407_CAN_COMM_TEST.c **** 
3379:HANcoder_E407_CAN_COMM_TEST.c ****     /* Update for UnitDelay: '<S15>/Output' */
3380:HANcoder_E407_CAN_COMM_TEST.c ****     rtDWork.Output_DSTATE = rtb_FixPtSum1;
 213              		.loc 1 3380 0
